
================================================================================

Section Cross References

    ap_startup.o(BootRom) refers to ap_armprg.o(.bss) for abort_stack
    ap_startup.o(BootRom) refers to ap_armprg.o(.bss) for undef_stack
    ap_startup.o(BootRom) refers to ap_armprg.o(.bss) for irq_stack
    ap_startup.o(BootRom) refers to ap_armprg.o(.bss) for svc_stack
    ap_startup.o(BootRom) refers to ap_msm.o(i.memory_init) for memory_init
    ap_startup.o(BootRom) refers to ap_armprg.o(i.main_c) for main_c
    ap_startup.o(BootRom) refers (Special) to ap_msm.o(i.asb_and_msm_init) for asb_and_msm_init
    ap_armprg.o(i.init_interface_to_host) refers to qhsusb_al_hostdl.o(.data) for usb_dispatch_table
    ap_armprg.o(i.init_interface_to_host) refers to ap_armprg.o(.bss) for .bss$2
    ap_armprg.o(i.init_interface_to_host) refers to ap_uart.o(.data) for uart_dispatch_table
    ap_armprg.o(i.main_c) refers to rt_memcpy.o(.text) for __rt_memcpy
    ap_armprg.o(i.main_c) refers to ap_msm.o(i.hw_id_and_init) for hw_id_and_init
    ap_armprg.o(i.main_c) refers to ap_flash.o(i.flash_device_init_data) for flash_device_init_data
    ap_armprg.o(i.main_c) refers to ap_armprg.o(i.init_interface_to_host) for init_interface_to_host
    ap_armprg.o(i.main_c) refers to ap_packet.o(i.packet_init) for packet_init
    ap_armprg.o(i.main_c) refers to ap_flash.o(i.flash_device_probe) for flash_device_probe
    ap_armprg.o(i.main_c) refers to ap_packet.o(i.packet_loop) for packet_loop
    ap_armprg.o(i.main_c) refers to ap_armprg.o(.constdata) for .constdata$1
    ap_armprg.o(i.main_c) refers to ap_id.o(.data) for id_tbl
    ap_packet.o(i.packet_init) refers to ap_packet.o(.bss) for .bss$2
    ap_packet.o(i.packet_init) refers to ap_packet.o(.data) for .data$0
    ap_packet.o(i.process_current_packet) refers to ap_packet.o(.bss) for .bss$2
    ap_packet.o(i.force_xmit_reply) refers to ap_armprg.o(.bss) for disptbl
    ap_packet.o(i.force_xmit_reply) refers to ap_packet.o(.bss) for .bss$2
    ap_packet.o(i.compute_reply_crc) refers to crc.o(i.crc_16_l_calc) for crc_16_l_calc
    ap_packet.o(i.compute_reply_crc) refers to ap_packet.o(.bss) for .bss$2
    ap_packet.o(i.xmit_log_message) refers to ap_packet.o(i.my_strlen) for my_strlen
    ap_packet.o(i.xmit_log_message) refers to rt_memcpy.o(.text) for __rt_memcpy
    ap_packet.o(i.xmit_log_message) refers to ap_packet.o(i.compute_reply_crc) for compute_reply_crc
    ap_packet.o(i.xmit_log_message) refers to ap_packet.o(i.force_xmit_reply) for force_xmit_reply
    ap_packet.o(i.xmit_log_message) refers to ap_packet.o(.bss) for .bss$2
    ap_packet.o(i.packet_handle_incoming) refers to ap_packet.o(i.xmit_log_message) for xmit_log_message
    ap_packet.o(i.packet_handle_incoming) refers to ap_packet.o(i.process_current_packet) for process_current_packet
    ap_packet.o(i.packet_handle_incoming) refers to ap_packet.o(.bss) for .bss$2
    ap_packet.o(i.packet_handle_incoming) refers to ap_packet.o(.constdata) for .constdata$1
    ap_packet.o(i.packet_handle_incoming_buf) refers to ap_packet.o(i.xmit_log_message) for xmit_log_message
    ap_packet.o(i.packet_handle_incoming_buf) refers to ap_packet.o(i.process_current_packet) for process_current_packet
    ap_packet.o(i.packet_handle_incoming_buf) refers to ap_packet.o(.bss) for .bss$2
    ap_packet.o(i.packet_handle_incoming_buf) refers to ap_packet.o(.constdata) for .constdata$1
    ap_packet.o(i.log_size_msg) refers to ap_packet.o(i.my_strlen) for my_strlen
    ap_packet.o(i.log_size_msg) refers to rt_memcpy.o(.text) for __rt_memcpy
    ap_packet.o(i.log_size_msg) refers to ap_packet.o(i.xmit_log_message) for xmit_log_message
    ap_packet.o(i.log_size_msg) refers to ap_packet.o(.data) for .data$0
    ap_packet.o(i.log_size_msg) refers to ap_packet.o(.bss) for .bss$2
    ap_packet.o(i.log_size_msg) refers to ap_packet.o(.constdata) for .constdata$1
    ap_packet.o(i.transmit_error) refers to ap_packet.o(i.my_strlen) for my_strlen
    ap_packet.o(i.transmit_error) refers to ap_packet.o(i.xmit_log_message) for xmit_log_message
    ap_packet.o(i.transmit_error) refers to rt_memcpy.o(.text) for __rt_memcpy
    ap_packet.o(i.transmit_error) refers to ap_packet.o(i.compute_reply_crc) for compute_reply_crc
    ap_packet.o(i.transmit_error) refers to ap_packet.o(i.force_xmit_reply) for force_xmit_reply
    ap_packet.o(i.transmit_error) refers to ap_packet.o(.bss) for .bss$2
    ap_packet.o(i.handle_invalid) refers to ap_packet.o(i.transmit_error) for transmit_error
    ap_packet.o(i.handle_invalid) refers to ap_packet.o(.constdata) for .constdata$1
    ap_packet.o(i.handle_hello) refers to memcmp.o(.text) for memcmp
    ap_packet.o(i.handle_hello) refers to rt_memcpy.o(.text) for __rt_memcpy
    ap_packet.o(i.handle_hello) refers to ap_flash.o(i.flash_device_name) for flash_device_name
    ap_packet.o(i.handle_hello) refers to ap_packet.o(i.transmit_error) for transmit_error
    ap_packet.o(i.handle_hello) refers to ap_packet.o(i.my_strlen) for my_strlen
    ap_packet.o(i.handle_hello) refers to ap_flash.o(i.flash_device_sectors) for flash_device_sectors
    ap_packet.o(i.handle_hello) refers to ap_packet.o(i.compute_reply_crc) for compute_reply_crc
    ap_packet.o(i.handle_hello) refers to ap_packet.o(i.force_xmit_reply) for force_xmit_reply
    ap_packet.o(i.handle_hello) refers to ap_flash.o(.data) for flash_dev_type
    ap_packet.o(i.handle_hello) refers to ap_packet.o(.constdata) for .constdata$1
    ap_packet.o(i.handle_hello) refers to ap_packet.o(.data) for .data$0
    ap_packet.o(i.handle_hello) refers to ap_packet.o(.bss) for .bss$2
    ap_packet.o(i.handle_simple_read) refers to ap_packet.o(i.transmit_error) for transmit_error
    ap_packet.o(i.handle_simple_read) refers to ap_flash.o(i.do_read) for do_read
    ap_packet.o(i.handle_simple_read) refers to ap_packet.o(i.compute_reply_crc) for compute_reply_crc
    ap_packet.o(i.handle_simple_read) refers to ap_packet.o(i.force_xmit_reply) for force_xmit_reply
    ap_packet.o(i.handle_simple_read) refers to ap_packet.o(.constdata) for .constdata$1
    ap_packet.o(i.handle_simple_read) refers to ap_packet.o(.bss) for .bss$2
    ap_packet.o(i.handle_reset) refers to ap_packet.o(i.compute_reply_crc) for compute_reply_crc
    ap_packet.o(i.handle_reset) refers to ap_packet.o(i.force_xmit_reply) for force_xmit_reply
    ap_packet.o(i.handle_reset) refers to ap_msm.o(i.msm_reset) for msm_reset
    ap_packet.o(i.handle_reset) refers to ap_packet.o(.bss) for .bss$2
    ap_packet.o(i.handle_reset) refers to ap_armprg.o(.bss) for disptbl
    ap_packet.o(i.handle_simple_write) refers to rt_memcpy.o(.text) for __rt_memcpy
    ap_packet.o(i.handle_simple_write) refers to ap_flash.o(i.do_simple_write) for do_simple_write
    ap_packet.o(i.handle_simple_write) refers to ap_packet.o(i.transmit_error) for transmit_error
    ap_packet.o(i.handle_simple_write) refers to ap_packet.o(i.compute_reply_crc) for compute_reply_crc
    ap_packet.o(i.handle_simple_write) refers to ap_packet.o(i.force_xmit_reply) for force_xmit_reply
    ap_packet.o(i.handle_simple_write) refers to ap_packet.o(.bss) for .bss$2
    ap_packet.o(i.handle_simple_write) refers to ap_packet.o(.constdata) for .constdata$1
    ap_packet.o(i.handle_stream_write) refers to rt_memcpy.o(.text) for __rt_memcpy
    ap_packet.o(i.handle_stream_write) refers to ap_flash.o(i.do_stream_write) for do_stream_write
    ap_packet.o(i.handle_stream_write) refers to ap_packet.o(i.transmit_error) for transmit_error
    ap_packet.o(i.handle_stream_write) refers to ap_packet.o(i.compute_reply_crc) for compute_reply_crc
    ap_packet.o(i.handle_stream_write) refers to ap_packet.o(i.force_xmit_reply) for force_xmit_reply
    ap_packet.o(i.handle_stream_write) refers to ap_packet.o(.bss) for .bss$2
    ap_packet.o(i.handle_stream_write) refers to ap_packet.o(.constdata) for .constdata$1
    ap_packet.o(i.handle_sync) refers to rt_memcpy.o(.text) for __rt_memcpy
    ap_packet.o(i.handle_sync) refers to ap_packet.o(i.compute_reply_crc) for compute_reply_crc
    ap_packet.o(i.handle_sync) refers to ap_packet.o(i.force_xmit_reply) for force_xmit_reply
    ap_packet.o(i.handle_sync) refers to ap_packet.o(.bss) for .bss$2
    ap_packet.o(i.handle_power_off) refers to ap_packet.o(i.transmit_error) for transmit_error
    ap_packet.o(i.handle_power_off) refers to ap_packet.o(.bss) for .bss$2
    ap_packet.o(i.handle_power_off) refers to ap_packet.o(.constdata) for .constdata$1
    ap_packet.o(i.handle_open) refers to ap_packet.o(i.transmit_error) for transmit_error
    ap_packet.o(i.handle_open) refers to ap_packet.o(.constdata) for .constdata$1
    ap_packet.o(i.handle_close) refers to ap_packet.o(i.transmit_error) for transmit_error
    ap_packet.o(i.handle_close) refers to ap_packet.o(.constdata) for .constdata$1
    ap_packet.o(i.handle_security_mode) refers to ap_packet.o(i.transmit_error) for transmit_error
    ap_packet.o(i.handle_security_mode) refers to ap_packet.o(.constdata) for .constdata$1
    ap_packet.o(i.handle_parti_tbl) refers to ap_packet.o(i.transmit_error) for transmit_error
    ap_packet.o(i.handle_parti_tbl) refers to ap_packet.o(.constdata) for .constdata$1
    ap_packet.o(i.handle_open_multi) refers to ap_packet.o(i.transmit_error) for transmit_error
    ap_packet.o(i.handle_open_multi) refers to ap_packet.o(.constdata) for .constdata$1
    ap_packet.o(i.packet_process) refers to crc.o(i.crc_16_l_step) for crc_16_l_step
    ap_packet.o(i.packet_process) refers to ap_packet.o(i.xmit_log_message) for xmit_log_message
    ap_packet.o(i.packet_process) refers to ap_packet.o(i.transmit_error) for transmit_error
    ap_packet.o(i.packet_process) refers to ap_packet.o(i.handle_invalid) for handle_invalid
    ap_packet.o(i.packet_process) refers to ap_armprg.o(.bss) for disptbl
    ap_packet.o(i.packet_process) refers to ap_packet.o(.constdata) for .constdata$1
    ap_packet.o(i.packet_process) refers to ap_packet.o(.data) for .data$0
    ap_packet.o(i.packet_process) refers to ap_flash.o(.data) for flash_dev_type
    ap_packet.o(i.packet_process) refers to ap_packet.o(.bss) for .bss$2
    ap_packet.o(i.packet_loop) refers to ap_packet.o(i.packet_process) for packet_process
    ap_packet.o(i.packet_loop) refers to ap_armprg.o(.bss) for disptbl
    ap_packet.o(.data) refers to ap_packet.o(.constdata) for .constdata$1
    ap_packet.o(.data) refers to ap_packet.o(i.handle_hello) for handle_hello
    ap_packet.o(.data) refers to ap_packet.o(i.handle_invalid) for handle_invalid
    ap_packet.o(.data) refers to ap_packet.o(i.handle_simple_read) for handle_simple_read
    ap_packet.o(.data) refers to ap_packet.o(i.handle_simple_write) for handle_simple_write
    ap_packet.o(.data) refers to ap_packet.o(i.handle_stream_write) for handle_stream_write
    ap_packet.o(.data) refers to ap_packet.o(i.handle_sync) for handle_sync
    ap_packet.o(.data) refers to ap_packet.o(i.handle_reset) for handle_reset
    ap_packet.o(.data) refers to ap_packet.o(i.handle_power_off) for handle_power_off
    ap_packet.o(.data) refers to ap_packet.o(i.handle_open) for handle_open
    ap_packet.o(.data) refers to ap_packet.o(i.handle_close) for handle_close
    ap_packet.o(.data) refers to ap_packet.o(i.handle_security_mode) for handle_security_mode
    ap_packet.o(.data) refers to ap_packet.o(i.handle_parti_tbl) for handle_parti_tbl
    ap_packet.o(.data) refers to ap_packet.o(i.handle_open_multi) for handle_open_multi
    flash_msm.o(i.flash_nor_geometry_init) refers to rt_memcpy_w.o(.text) for __rt_memcpy_w
    flash_msm.o(i.flash_nor_geometry_init) refers to flash_os_none.o(i.rex_int_lock) for rex_int_lock
    flash_msm.o(i.flash_nor_geometry_init) refers to flash_ram.o(i.flash_read_cfi) for flash_read_cfi
    flash_msm.o(i.flash_nor_geometry_init) refers to flash_os_none.o(i.rex_int_free) for rex_int_free
    flash_msm.o(i.flash_nor_geometry_init) refers to flash_msm.o(.bss) for .bss$2
    flash_msm.o(.data) refers to flash_nor_spansion.o(.data) for S29WS512P
    flash_msm.o(.data) refers to flash_nor_samsung.o(.data) for K5N5629ABM
    flash_msm.o(.data) refers to flash_nor_samsung.o(.data) for K5N6433ABM
    flash_msm.o(.data) refers to flash_nor_intel.o(.data) for Intel_512M18_ADMux
    flash_msm.o(.data) refers to flash_nor_intel.o(.data) for Intel_64W18_ADMux
    flash_msm.o(.data) refers to flash_msm.o(.data) for intel_parts
    flash_msm.o(.data) refers to flash_msm.o(.data) for samsung_parts
    flash_msm.o(.data) refers to flash_msm.o(.data) for spansion_parts
    flash_msm.o(.data) refers to flash_nor_intel.o(i.intel_probe) for intel_probe
    flash_msm.o(.data) refers to flash_nor_samsung.o(i.samsung_nor_probe) for samsung_nor_probe
    flash_msm.o(.data) refers to flash_nor_spansion.o(i.spansion_probe) for spansion_probe
    flash_common.o(i.flash_open) refers to flash_msm.o(i.flash_msm_get_device_type) for flash_msm_get_device_type
    flash_common.o(i.flash_open) refers to flash_nor.o(i.flash_nor_device_probe) for flash_nor_device_probe
    flash_common.o(i.flash_open) refers to flash_common.o(i.flash_release_device_structure) for flash_release_device_structure
    flash_common.o(i.flash_open) refers to flash_msm.o(i.flash_nor_validate_structure) for flash_nor_validate_structure
    flash_common.o(i.flash_open) refers to strncmp.o(.text) for strncmp
    flash_common.o(i.flash_open) refers to flash_common.o(.bss) for .bss$2
    flash_common.o(i.flash_open) refers to flash_common.o(.constdata) for .constdata$1
    flash_common.o(i.flash_close) refers to flash_common.o(i.flash_release_device_structure) for flash_release_device_structure
    flash_common.o(i.flash_release_device_structure) refers to flash_common.o(.bss) for .bss$2
    flash_nor.o(i.flash_nor_device_probe) refers to flash_nor.o(i.fsi_ram_probe) for fsi_ram_probe
    flash_nor.o(i.flash_nor_device_probe) refers to rt_memcpy_w.o(.text) for __rt_memcpy_w
    flash_nor.o(i.flash_nor_device_probe) refers to flash_nor_utils.o(i.flash_nor_find_size_for_block_addr) for flash_nor_find_size_for_block_addr
    flash_nor.o(i.flash_nor_device_probe) refers to rt_udiv.o(.text) for __rt_udiv
    flash_nor.o(i.flash_nor_device_probe) refers to flash_msm.o(.data) for flash_nor_probe_table
    flash_nor.o(i.flash_nor_device_probe) refers to flash_nor.o(.bss) for .bss$2
    flash_nor.o(i.flash_nor_device_probe) refers to flash_nor.o(.data) for flash_nor_ops
    flash_nor.o(i.fs_nor_device_write_partial_page) refers to flash_nor.o(.bss) for .bss$2
    flash_nor.o(i.fs_nor_device_write_page) refers to flash_nor.o(i.fs_nor_device_write_partial_page) for fs_nor_device_write_partial_page
    flash_nor.o(i.fs_nor_device_start_erase_block) refers to flash_nor.o(.bss) for .bss$2
    flash_nor.o(i.fs_nor_device_suspend_erase) refers to flash_nor.o(.bss) for .bss$2
    flash_nor.o(i.fs_nor_device_resume_erase) refers to flash_nor.o(.bss) for .bss$2
    flash_nor.o(i.fs_nor_device_erase_block_status) refers to flash_nor.o(.bss) for .bss$2
    flash_nor.o(i.fs_nor_device_block_size) refers to rt_udiv.o(.text) for __rt_udiv
    flash_nor.o(.data) refers to flash_nor.o(i.fs_nor_device_name) for fs_nor_device_name
    flash_nor.o(.data) refers to flash_nor.o(i.fs_nor_device_block_count) for fs_nor_device_block_count
    flash_nor.o(.data) refers to flash_nor.o(i.fs_nor_device_block_size) for fs_nor_device_block_size
    flash_nor.o(.data) refers to flash_nor.o(i.fs_nor_device_page_size) for fs_nor_device_page_size
    flash_nor.o(.data) refers to flash_nor.o(i.fs_nor_device_bad_block_check) for fs_nor_device_bad_block_check
    flash_nor.o(.data) refers to flash_nor.o(i.fs_nor_device_mark_block_bad) for fs_nor_device_mark_block_bad
    flash_nor.o(.data) refers to flash_nor.o(i.fs_nor_device_write_page) for fs_nor_device_write_page
    flash_nor.o(.data) refers to flash_nor.o(i.fs_nor_device_erase_block) for fs_nor_device_erase_block
    flash_nor.o(.data) refers to flash_nor.o(i.fs_nor_device_read_ptr) for fs_nor_device_read_ptr
    flash_nor.o(.data) refers to flash_nor.o(i.fs_nor_device_read_page) for fs_nor_device_read_page
    flash_nor.o(.data) refers to flash_nor.o(i.fs_nor_device_is_page_erased) for fs_nor_device_is_page_erased
    flash_nor.o(.data) refers to flash_nor.o(i.fs_nor_device_write_partial_page) for fs_nor_device_write_partial_page
    flash_nor.o(.data) refers to flash_nor.o(i.fs_nor_device_start_erase_block) for fs_nor_device_start_erase_block
    flash_nor.o(.data) refers to flash_nor.o(i.fs_nor_device_suspend_erase) for fs_nor_device_suspend_erase
    flash_nor.o(.data) refers to flash_nor.o(i.fs_nor_device_resume_erase) for fs_nor_device_resume_erase
    flash_nor.o(.data) refers to flash_nor.o(i.fs_nor_device_erase_block_status) for fs_nor_device_erase_block_status
    flash_nor.o(.data) refers to flash_nor.o(i.flash_nor_get_partition_phy_limits) for flash_nor_get_partition_phy_limits
    flash_nor.o(.data) refers to flash_nor.o(i.fs_nor_device_get_write_style) for fs_nor_device_get_write_style
    flash_ram.o(i.flash_peek_twice) refers to flash_os_none.o(i.rex_int_lock) for rex_int_lock
    flash_ram.o(i.flash_peek_twice) refers to flash_os_none.o(i.rex_int_free) for rex_int_free
    flash_ram.o(i.flash_read_cfi) refers to flash_ram.o(.data) for cfi_copy_functions
    flash_ram.o(.data) refers to flash_ram.o(i.flash_spansion_copy_cfi_data) for flash_spansion_copy_cfi_data
    flash_ram.o(.data) refers to flash_ram.o(i.flash_intel_copy_cfi_data) for flash_intel_copy_cfi_data
    flash_ram.o(.data) refers to flash_ram.o(i.flash_samsung_copy_cfi_data) for flash_samsung_copy_cfi_data
    flash_nor_spansion.o(i.spansion_probe) refers to flash_os_none.o(i.rex_int_lock) for rex_int_lock
    flash_nor_spansion.o(i.spansion_probe) refers to flash_ram.o(i.flash_spansion_get_id_codes) for flash_spansion_get_id_codes
    flash_nor_spansion.o(i.spansion_probe) refers to flash_os_none.o(i.rex_int_free) for rex_int_free
    flash_nor_spansion.o(i.spansion_probe) refers to flash_msm.o(.data) for spansion_parts
    flash_nor_spansion.o(i.wait_data_polling) refers to ap_armprg.o(.bss) for disptbl
    flash_nor_spansion.o(i.fsi_spansion_erase_status) refers to flash_ram.o(i.flash_peek_twice) for flash_peek_twice
    flash_nor_spansion.o(i.fsi_spansion_suspend) refers to flash_os_none.o(i.rex_int_lock) for rex_int_lock
    flash_nor_spansion.o(i.fsi_spansion_suspend) refers to flash_os_none.o(i.rex_int_free) for rex_int_free
    flash_nor_spansion.o(i.fsi_spansion_suspend) refers to flash_nor_spansion.o(.bss) for .bss$2
    flash_nor_spansion.o(i.fsi_spansion_suspend) refers to flash_nor_spansion.o(.data) for .data$0
    flash_nor_spansion.o(i.fsi_spansion_suspend) refers to flash_msm.o(.bss) for clk_mclk_freq_mhz
    flash_nor_spansion.o(i.fsi_spansion_resume) refers to flash_os_none.o(i.rex_int_lock) for rex_int_lock
    flash_nor_spansion.o(i.fsi_spansion_resume) refers to flash_os_none.o(i.rex_int_free) for rex_int_free
    flash_nor_spansion.o(i.fsi_spansion_resume) refers to flash_nor_spansion.o(.data) for .data$0
    flash_nor_spansion.o(i.fsi_spansion_resume) refers to flash_msm.o(.bss) for clk_mclk_freq_mhz
    flash_nor_spansion.o(i.fsi_spansion_configure) refers to flash_msm.o(i.flash_nor_geometry_init) for flash_nor_geometry_init
    flash_nor_spansion.o(i.fsi_spansion_configure) refers to flash_ram.o(i.flash_peek_twice) for flash_peek_twice
    flash_nor_spansion.o(i.fsi_spansion_configure) refers to ap_armprg.o(.bss) for disptbl
    flash_nor_spansion.o(i.fsi_spansion_buffer_write) refers to ap_armprg.o(.bss) for disptbl
    flash_nor_spansion.o(i.fsi_spansion_buffer_write) refers to flash_msm.o(.bss) for clk_mclk_freq_mhz
    flash_nor_spansion.o(i.fsi_spansion_write) refers to flash_nor_spansion.o(i.fsi_spansion_buffer_write) for fsi_spansion_buffer_write
    flash_nor_spansion.o(i.fsi_spansion_write) refers to ap_armprg.o(.bss) for disptbl
    flash_nor_spansion.o(i.fsi_spansion_byte_write) refers to ap_armprg.o(.bss) for disptbl
    flash_nor_spansion.o(i.fsi_spansion_byte_write) refers to flash_msm.o(.bss) for clk_mclk_freq_mhz
    flash_nor_spansion.o(i.fsi_spansion_fast_byte_write) refers to ap_armprg.o(.bss) for disptbl
    flash_nor_spansion.o(i.fsi_spansion_fast_byte_write) refers to flash_msm.o(.bss) for clk_mclk_freq_mhz
    flash_nor_spansion.o(.data) refers to flash_nor_spansion.o(i.fsi_spansion_configure) for fsi_spansion_configure
    flash_nor_spansion.o(.data) refers to flash_nor.o(i.fsi_nor_device_worded_read) for fsi_nor_device_worded_read
    flash_nor_spansion.o(.data) refers to flash_nor_spansion.o(i.fsi_spansion_write) for fsi_spansion_write
    flash_nor_spansion.o(.data) refers to flash_nor_spansion.o(i.fsi_spansion_erase_start) for fsi_spansion_erase_start
    flash_nor_spansion.o(.data) refers to flash_nor_spansion.o(i.fsi_spansion_erase_status) for fsi_spansion_erase_status
    flash_nor_spansion.o(.data) refers to flash_nor_spansion.o(i.fsi_spansion_suspend) for fsi_spansion_suspend
    flash_nor_spansion.o(.data) refers to flash_nor_spansion.o(i.fsi_spansion_resume) for fsi_spansion_resume
    flash_nor_spansion.o(.data) refers to flash_nor_spansion.o(i.fsi_spansion_configure) for fsi_spansion_configure
    flash_nor_spansion.o(.data) refers to flash_nor.o(i.fsi_nor_device_worded_read) for fsi_nor_device_worded_read
    flash_nor_spansion.o(.data) refers to flash_nor_spansion.o(i.fsi_spansion_fast_byte_write) for fsi_spansion_fast_byte_write
    flash_nor_spansion.o(.data) refers to flash_nor_spansion.o(i.fsi_spansion_erase_start) for fsi_spansion_erase_start
    flash_nor_spansion.o(.data) refers to flash_nor_spansion.o(i.fsi_spansion_erase_status) for fsi_spansion_erase_status
    flash_nor_spansion.o(.data) refers to flash_nor_spansion.o(i.fsi_spansion_suspend) for fsi_spansion_suspend
    flash_nor_spansion.o(.data) refers to flash_nor_spansion.o(i.fsi_spansion_resume) for fsi_spansion_resume
    flash_nor_spansion.o(.data) refers to flash_nor_spansion.o(.constdata) for .constdata$26
    flash_nor_spansion.o(.data) refers to flash_nor_spansion.o(.data) for S29WS256N0SB_geometry
    flash_nor_spansion.o(.data) refers to flash_nor_spansion.o(.data) for flash_spansion_op_functions
    flash_nor_spansion.o(.data) refers to flash_nor_spansion.o(.constdata) for .constdata$31
    flash_nor_spansion.o(.data) refers to flash_nor_spansion.o(.data) for S29WS512P_geometry
    flash_nor_spansion.o(.data) refers to flash_nor_spansion.o(.data) for flash_spansion_op_functions
    flash_nor_spansion.o(.data) refers to flash_nor_spansion.o(.constdata) for .constdata$41
    flash_nor_spansion.o(.data) refers to flash_nor_spansion.o(.data) for S71PL032J80_srw_geometry
    flash_nor_spansion.o(.data) refers to flash_nor_spansion.o(.data) for flash_spansion_pl_op_functions
    flash_nor_samsung.o(i.samsung_nor_probe) refers to flash_os_none.o(i.rex_int_lock) for rex_int_lock
    flash_nor_samsung.o(i.samsung_nor_probe) refers to flash_ram.o(i.flash_samsung_get_id_codes) for flash_samsung_get_id_codes
    flash_nor_samsung.o(i.samsung_nor_probe) refers to flash_os_none.o(i.rex_int_free) for rex_int_free
    flash_nor_samsung.o(i.samsung_nor_probe) refers to flash_msm.o(.data) for samsung_parts
    flash_nor_samsung.o(i.fsi_samsung_erase_status) refers to flash_ram.o(i.flash_peek_twice) for flash_peek_twice
    flash_nor_samsung.o(i.fsi_samsung_suspend) refers to flash_nor_samsung.o(.bss) for .bss$2
    flash_nor_samsung.o(i.fsi_samsung_suspend) refers to flash_nor_samsung.o(.data) for .data$0
    flash_nor_samsung.o(i.fsi_samsung_suspend) refers to flash_msm.o(.bss) for clk_mclk_freq_mhz
    flash_nor_samsung.o(i.fsi_samsung_resume) refers to flash_msm.o(.bss) for clk_mclk_freq_mhz
    flash_nor_samsung.o(i.fsi_samsung_unprotect_blocks) refers to ap_armprg.o(.bss) for disptbl
    flash_nor_samsung.o(i.fsi_samsung_configure) refers to flash_msm.o(i.flash_nor_geometry_init) for flash_nor_geometry_init
    flash_nor_samsung.o(i.fsi_samsung_configure) refers to flash_nor_samsung.o(i.fsi_samsung_unprotect_blocks) for fsi_samsung_unprotect_blocks
    flash_nor_samsung.o(i.fsi_samsung_configure) refers to flash_ram.o(i.flash_peek_twice) for flash_peek_twice
    flash_nor_samsung.o(i.fsi_samsung_configure) refers to flash_nor_samsung.o(.bss) for .bss$2
    flash_nor_samsung.o(i.fsi_samsung_configure) refers to ap_armprg.o(.bss) for disptbl
    flash_nor_samsung.o(i.fsi_samsung_buffer_write) refers to ap_armprg.o(.bss) for disptbl
    flash_nor_samsung.o(i.fsi_samsung_write) refers to flash_nor_samsung.o(i.fsi_samsung_buffer_write) for fsi_samsung_buffer_write
    flash_nor_samsung.o(i.fsi_samsung_write) refers to ap_armprg.o(.bss) for disptbl
    flash_nor_samsung.o(i.fsi_samsung_byte_write) refers to ap_armprg.o(.bss) for disptbl
    flash_nor_samsung.o(i.fsi_samsung_fast_byte_write) refers to ap_armprg.o(.bss) for disptbl
    flash_nor_samsung.o(.data) refers to flash_nor_samsung.o(i.fsi_samsung_configure) for fsi_samsung_configure
    flash_nor_samsung.o(.data) refers to flash_nor.o(i.fsi_nor_device_worded_read) for fsi_nor_device_worded_read
    flash_nor_samsung.o(.data) refers to flash_nor_samsung.o(i.fsi_samsung_write) for fsi_samsung_write
    flash_nor_samsung.o(.data) refers to flash_nor_samsung.o(i.fsi_samsung_erase_start) for fsi_samsung_erase_start
    flash_nor_samsung.o(.data) refers to flash_nor_samsung.o(i.fsi_samsung_erase_status) for fsi_samsung_erase_status
    flash_nor_samsung.o(.data) refers to flash_nor_samsung.o(i.fsi_samsung_suspend) for fsi_samsung_suspend
    flash_nor_samsung.o(.data) refers to flash_nor_samsung.o(i.fsi_samsung_resume) for fsi_samsung_resume
    flash_nor_samsung.o(.data) refers to flash_nor_samsung.o(i.fsi_samsung_configure) for fsi_samsung_configure
    flash_nor_samsung.o(.data) refers to flash_nor.o(i.fsi_nor_device_worded_read) for fsi_nor_device_worded_read
    flash_nor_samsung.o(.data) refers to flash_nor_samsung.o(i.fsi_samsung_fast_byte_write) for fsi_samsung_fast_byte_write
    flash_nor_samsung.o(.data) refers to flash_nor_samsung.o(i.fsi_samsung_erase_start) for fsi_samsung_erase_start
    flash_nor_samsung.o(.data) refers to flash_nor_samsung.o(i.fsi_samsung_erase_status) for fsi_samsung_erase_status
    flash_nor_samsung.o(.data) refers to flash_nor_samsung.o(i.fsi_samsung_suspend) for fsi_samsung_suspend
    flash_nor_samsung.o(.data) refers to flash_nor_samsung.o(i.fsi_samsung_resume) for fsi_samsung_resume
    flash_nor_samsung.o(.data) refers to flash_nor_samsung.o(.constdata) for .constdata$31
    flash_nor_samsung.o(.data) refers to flash_nor_samsung.o(.data) for K5N5629ABM_geometry
    flash_nor_samsung.o(.data) refers to flash_nor_samsung.o(.data) for flash_samsung_op_functions
    flash_nor_samsung.o(.data) refers to flash_nor_samsung.o(.constdata) for .constdata$36
    flash_nor_samsung.o(.data) refers to flash_nor_samsung.o(.data) for K5N5666ATM_geometry
    flash_nor_samsung.o(.data) refers to flash_nor_samsung.o(.data) for flash_samsung_op_functions
    flash_nor_samsung.o(.data) refers to flash_nor_samsung.o(.constdata) for .constdata$41
    flash_nor_samsung.o(.data) refers to flash_nor_samsung.o(.data) for K5N6433ABM_geometry
    flash_nor_samsung.o(.data) refers to flash_nor_samsung.o(.data) for flash_samsung_op_word_write_functions
    flash_nor_intel.o(i.__flash_intel_check_ready_status) refers to flash_msm.o(.bss) for clk_mclk_freq_mhz
    flash_nor_intel.o(i.__flash_intel_buffer_write) refers to flash_nor_intel.o(i.__flash_intel_check_ready_status) for __flash_intel_check_ready_status
    flash_nor_intel.o(i.__flash_intel_buffer_write) refers to flash_nor_intel.o(.bss) for .bss$2
    flash_nor_intel.o(i.__flash_intel_buffer_write) refers to ap_armprg.o(.bss) for disptbl
    flash_nor_intel.o(i.__flash_intel_partial_buffer_write) refers to flash_nor_intel.o(i.__flash_intel_check_ready_status) for __flash_intel_check_ready_status
    flash_nor_intel.o(i.__flash_intel_partial_buffer_write) refers to flash_nor_intel.o(.bss) for .bss$2
    flash_nor_intel.o(i.flash_intel_word_write) refers to flash_nor_intel.o(i.__flash_intel_check_ready_status) for __flash_intel_check_ready_status
    flash_nor_intel.o(i.flash_intel_word_write) refers to flash_nor_intel.o(.bss) for .bss$2
    flash_nor_intel.o(i.flash_intel_word_write) refers to ap_armprg.o(.bss) for disptbl
    flash_nor_intel.o(i.intel_probe) refers to flash_os_none.o(i.rex_int_lock) for rex_int_lock
    flash_nor_intel.o(i.intel_probe) refers to flash_ram.o(i.flash_intel_copy_cfi_data) for flash_intel_copy_cfi_data
    flash_nor_intel.o(i.intel_probe) refers to flash_os_none.o(i.rex_int_free) for rex_int_free
    flash_nor_intel.o(i.intel_probe) refers to flash_msm.o(.data) for intel_parts
    flash_nor_intel.o(i.intel_probe) refers to flash_nor_intel.o(.bss) for .bss$2
    flash_nor_intel.o(i.__flash_intel_convert_to_hd_addr) refers to flash_nor_intel.o(.bss) for .bss$2
    flash_nor_intel.o(i.flash_intel_erase_start) refers to flash_nor_intel.o(i.__flash_intel_convert_to_hd_addr) for __flash_intel_convert_to_hd_addr
    flash_nor_intel.o(i.flash_intel_erase_start) refers to flash_nor_intel.o(i.__flash_intel_check_ready_status) for __flash_intel_check_ready_status
    flash_nor_intel.o(i.flash_intel_erase_start) refers to flash_nor_intel.o(.bss) for .bss$2
    flash_nor_intel.o(i.flash_intel_erase_status) refers to flash_nor_intel.o(i.__flash_intel_convert_to_hd_addr) for __flash_intel_convert_to_hd_addr
    flash_nor_intel.o(i.flash_intel_erase_status) refers to flash_nor_intel.o(.bss) for .bss$2
    flash_nor_intel.o(i.flash_intel_buffer_write) refers to flash_nor_intel.o(i.__flash_intel_convert_to_hd_addr) for __flash_intel_convert_to_hd_addr
    flash_nor_intel.o(i.flash_intel_buffer_write) refers to flash_nor_intel.o(i.__flash_intel_buffer_write) for __flash_intel_buffer_write
    flash_nor_intel.o(i.flash_intel_buffer_write) refers to flash_nor_intel.o(i.__flash_intel_partial_buffer_write) for __flash_intel_partial_buffer_write
    flash_nor_intel.o(i.flash_intel_buffer_write) refers to flash_nor_intel.o(.bss) for .bss$2
    flash_nor_intel.o(i.flash_intel_suspend) refers to flash_nor_intel.o(i.__flash_intel_convert_to_hd_addr) for __flash_intel_convert_to_hd_addr
    flash_nor_intel.o(i.flash_intel_suspend) refers to flash_nor_intel.o(i.__flash_intel_check_ready_status) for __flash_intel_check_ready_status
    flash_nor_intel.o(i.flash_intel_suspend) refers to flash_nor_intel.o(.bss) for .bss$2
    flash_nor_intel.o(i.flash_intel_resume) refers to flash_nor_intel.o(i.__flash_intel_convert_to_hd_addr) for __flash_intel_convert_to_hd_addr
    flash_nor_intel.o(i.flash_intel_resume) refers to flash_nor_intel.o(.bss) for .bss$2
    flash_nor_intel.o(i.flash_intel_resume) refers to ap_armprg.o(.bss) for disptbl
    flash_nor_intel.o(i.flash_intel_configure) refers to flash_msm.o(i.flash_nor_geometry_init) for flash_nor_geometry_init
    flash_nor_intel.o(i.flash_intel_configure) refers to flash_nor_intel.o(i.__flash_intel_check_ready_status) for __flash_intel_check_ready_status
    flash_nor_intel.o(i.flash_intel_configure) refers to flash_nor_intel.o(.bss) for .bss$2
    flash_nor_intel.o(i.flash_intel_configure) refers to flash_msm.o(.bss) for flash_geometry_data
    flash_nor_intel.o(i.flash_intel_configure) refers to ap_armprg.o(.bss) for disptbl
    flash_nor_intel.o(i.flash_intel_hd_word_read) refers to flash_nor_intel.o(i.__flash_intel_convert_to_hd_addr) for __flash_intel_convert_to_hd_addr
    flash_nor_intel.o(i.flash_intel_hd_word_read) refers to rt_udiv.o(.text) for __rt_udiv
    flash_nor_intel.o(i.flash_intel_hd_word_read) refers to rt_memmove.o(.text) for __rt_memmove
    flash_nor_intel.o(i.flash_intel_hd_word_read) refers to flash_nor_intel.o(.bss) for .bss$2
    flash_nor_intel.o(i.flash_intel_hd_read_ptr) refers to flash_nor_intel.o(i.flash_intel_hd_word_read) for flash_intel_hd_word_read
    flash_nor_intel.o(i.flash_intel_hd_read_ptr) refers to flash_nor_intel.o(.bss) for .bss$2
    flash_nor_intel.o(i.flash_intel_hd_is_erased) refers to flash_nor_intel.o(i.__flash_intel_convert_to_hd_addr) for __flash_intel_convert_to_hd_addr
    flash_nor_intel.o(i.flash_intel_hd_is_erased) refers to flash_nor_intel.o(.bss) for .bss$2
    flash_nor_intel.o(.data) refers to flash_nor_intel.o(i.flash_intel_configure) for flash_intel_configure
    flash_nor_intel.o(.data) refers to flash_nor.o(i.fsi_nor_device_worded_read) for fsi_nor_device_worded_read
    flash_nor_intel.o(.data) refers to flash_nor_intel.o(i.flash_intel_word_write) for flash_intel_word_write
    flash_nor_intel.o(.data) refers to flash_nor_intel.o(i.flash_intel_erase_start) for flash_intel_erase_start
    flash_nor_intel.o(.data) refers to flash_nor_intel.o(i.flash_intel_erase_status) for flash_intel_erase_status
    flash_nor_intel.o(.data) refers to flash_nor_intel.o(i.flash_intel_suspend) for flash_intel_suspend
    flash_nor_intel.o(.data) refers to flash_nor_intel.o(i.flash_intel_resume) for flash_intel_resume
    flash_nor_intel.o(.data) refers to flash_nor_intel.o(i.flash_intel_configure) for flash_intel_configure
    flash_nor_intel.o(.data) refers to flash_nor.o(i.fsi_nor_device_worded_read) for fsi_nor_device_worded_read
    flash_nor_intel.o(.data) refers to flash_nor_intel.o(i.flash_intel_word_write) for flash_intel_word_write
    flash_nor_intel.o(.data) refers to flash_nor_intel.o(i.flash_intel_erase_start) for flash_intel_erase_start
    flash_nor_intel.o(.data) refers to flash_nor_intel.o(i.flash_intel_erase_status) for flash_intel_erase_status
    flash_nor_intel.o(.data) refers to flash_nor_intel.o(i.flash_intel_suspend) for flash_intel_suspend
    flash_nor_intel.o(.data) refers to flash_nor_intel.o(i.flash_intel_resume) for flash_intel_resume
    flash_nor_intel.o(.data) refers to flash_nor_intel.o(i.flash_intel_configure) for flash_intel_configure
    flash_nor_intel.o(.data) refers to flash_nor.o(i.fsi_nor_device_worded_read) for fsi_nor_device_worded_read
    flash_nor_intel.o(.data) refers to flash_nor_intel.o(i.flash_intel_buffer_write) for flash_intel_buffer_write
    flash_nor_intel.o(.data) refers to flash_nor_intel.o(i.flash_intel_erase_start) for flash_intel_erase_start
    flash_nor_intel.o(.data) refers to flash_nor_intel.o(i.flash_intel_erase_status) for flash_intel_erase_status
    flash_nor_intel.o(.data) refers to flash_nor_intel.o(i.flash_intel_suspend) for flash_intel_suspend
    flash_nor_intel.o(.data) refers to flash_nor_intel.o(i.flash_intel_resume) for flash_intel_resume
    flash_nor_intel.o(.data) refers to flash_nor_intel.o(.constdata) for .constdata$51
    flash_nor_intel.o(.data) refers to flash_nor_intel.o(.data) for L18_geometry
    flash_nor_intel.o(.data) refers to flash_nor_intel.o(.data) for flash_intel_op_functions_L18
    flash_nor_intel.o(.data) refers to flash_nor_intel.o(.constdata) for .constdata$56
    flash_nor_intel.o(.data) refers to flash_nor_intel.o(.data) for Intel_64W18_geometry
    flash_nor_intel.o(.data) refers to flash_nor_intel.o(.data) for flash_intel_op_functions_W18
    flash_nor_intel.o(.data) refers to flash_nor_intel.o(.constdata) for .constdata$61
    flash_nor_intel.o(.data) refers to flash_nor_intel.o(.data) for Intel_1024M18_geometry
    flash_nor_intel.o(.data) refers to flash_nor_intel.o(.data) for flash_intel_op_functions_M18
    flash_nor_intel.o(.data) refers to flash_nor_intel.o(.constdata) for .constdata$66
    flash_nor_intel.o(.data) refers to flash_nor_intel.o(.data) for Intel_512M18_geometry
    flash_nor_intel.o(.data) refers to flash_nor_intel.o(.data) for flash_intel_op_functions_M18
    flash_partition.o(i.flash_partition_name_matches) refers to strncmp.o(.text) for strncmp
    flash_partition.o(i.flash_usr_partition_name_matches) refers to strncmp.o(.text) for strncmp
    flash_partition.o(i.flash_partition_tables_are_equal) refers to flash_partition.o(i.flash_partition_name_matches) for flash_partition_name_matches
    flash_partition.o(i.flash_usr_partition_tables_are_equal) refers to flash_partition.o(i.flash_usr_partition_name_matches) for flash_usr_partition_name_matches
    flash_partition.o(i.flash_partition_find_entry) refers to flash_partition.o(i.flash_partition_name_matches) for flash_partition_name_matches
    flash_nor_partition.o(i.flash_nor_update_limits) refers to flash_partition.o(i.flash_partition_find_entry) for flash_partition_find_entry
    flash_nor_partition.o(i.flash_nor_update_limits) refers to flash_nor_utils.o(i.flash_nor_find_block_num_for_start_addr) for flash_nor_find_block_num_for_start_addr
    flash_nor_partition.o(i.flash_nor_update_limits) refers to flash_nor_utils.o(i.flash_nor_find_size_for_block_num) for flash_nor_find_size_for_block_num
    flash_nor_partition.o(i.flash_nor_update_limits) refers to rt_udiv.o(.text) for __rt_udiv
    flash_nor_partition.o(i.flash_nor_open_partition) refers to strncmp.o(.text) for strncmp
    flash_nor_partition.o(i.flash_nor_open_partition) refers to flash_nor_utils.o(i.flash_nor_find_block_start_addr) for flash_nor_find_block_start_addr
    flash_nor_partition.o(i.flash_nor_open_partition) refers to flash_nor_partition.o(i.flash_nor_update_limits) for flash_nor_update_limits
    flash_nor_partition.o(i.flash_nor_open_partition) refers to flash_nor_partition.o(.constdata) for .constdata$1
    flash_nor_partition.o(i.flash_nor_convert_usr_parti_tbl_to_sys) refers to flash_nor_partition.o(i.flash_nor_convert_table_init) for flash_nor_convert_table_init
    flash_nor_partition.o(i.flash_nor_convert_usr_parti_tbl_to_sys) refers to flash_nor_partition.o(i.flash_nor_setup_system_parti_name) for flash_nor_setup_system_parti_name
    flash_nor_partition.o(i.flash_nor_convert_usr_parti_tbl_to_sys) refers to flash_nor_partition.o(i.flash_nor_check_system_parti_bank) for flash_nor_check_system_parti_bank
    flash_nor_partition.o(i.flash_nor_convert_usr_parti_tbl_to_sys) refers to flash_nor_partition.o(i.flash_nor_count_sectors_in_parti) for flash_nor_count_sectors_in_parti
    flash_nor_partition.o(i.flash_nor_convert_usr_parti_tbl_to_sys) refers to flash_nor_partition.o(i.flash_nor_parti_size_in_KB) for flash_nor_parti_size_in_KB
    flash_nor_partition.o(i.flash_nor_convert_usr_parti_tbl_to_sys) refers to flash_nor_partition.o(i.flash_nor_setup_system_parti_info) for flash_nor_setup_system_parti_info
    flash_nor_partition.o(i.flash_nor_convert_usr_parti_tbl_to_sys) refers to flash_nor_partition.o(i.flash_nor_setup_system_parti_grow_parti) for flash_nor_setup_system_parti_grow_parti
    flash_nor_partition.o(i.flash_nor_convert_table_init) refers to rt_memset.o(.text) for __rt_memset
    flash_nor_partition.o(i.flash_nor_setup_system_parti_name) refers to strncmp.o(.text) for strncmp
    flash_nor_partition.o(i.flash_nor_setup_system_parti_name) refers to flash_nor_partition.o(.constdata) for .constdata$1
    flash_nor_partition.o(i.flash_nor_setup_system_parti_name) refers to flash_nor_partition.o(.data) for .data$0
    flash_nor_partition.o(i.flash_nor_setup_system_parti_info) refers to flash_nor_partition.o(.data) for .data$0
    flash_nor_partition.o(i.flash_nor_setup_system_parti_grow_parti) refers to flash_nor_partition.o(i.flash_nor_check_system_parti_bank) for flash_nor_check_system_parti_bank
    flash_nor_partition.o(i.flash_nor_setup_system_parti_grow_parti) refers to flash_nor_partition.o(i.flash_nor_count_sectors_in_parti) for flash_nor_count_sectors_in_parti
    flash_nor_partition.o(i.flash_nor_setup_system_parti_grow_parti) refers to flash_nor_partition.o(i.flash_nor_parti_size_in_KB) for flash_nor_parti_size_in_KB
    ap_uart.o(i.uartdm_init) refers to ap_uart.o(i.uartdm_init_local_receiver_status) for uartdm_init_local_receiver_status
    ap_uart.o(i.uartdm_init_receiver) refers to ap_uart.o(i.uartdm_reset_receiver) for uartdm_reset_receiver
    ap_uart.o(i.uartdm_init_receiver) refers to ap_uart.o(i.uartdm_drain) for uartdm_drain
    ap_uart.o(i.uartdm_init_receiver) refers to ap_uart.o(i.uartdm_init_local_receiver_status) for uartdm_init_local_receiver_status
    ap_uart.o(i.uartdm_init_receiver) refers to ap_uart.o(i.uartdm_start_receiving_data) for uartdm_start_receiving_data
    ap_uart.o(i.uartdm_get_interface_status) refers to ap_uart.o(i.uartdm_reset_receiver) for uartdm_reset_receiver
    ap_uart.o(i.uartdm_get_interface_status) refers to ap_uart.o(i.uartdm_drain) for uartdm_drain
    ap_uart.o(i.uartdm_get_interface_status) refers to ap_uart.o(i.uartdm_init_local_receiver_status) for uartdm_init_local_receiver_status
    ap_uart.o(i.uartdm_get_interface_status) refers to ap_uart.o(i.uartdm_start_receiving_data) for uartdm_start_receiving_data
    ap_uart.o(i.uartdm_receive_bytes) refers to ap_uart.o(i.uartdm_reset_receiver) for uartdm_reset_receiver
    ap_uart.o(i.uartdm_receive_bytes) refers to ap_uart.o(i.uartdm_drain) for uartdm_drain
    ap_uart.o(i.uartdm_receive_bytes) refers to ap_uart.o(i.uartdm_init_local_receiver_status) for uartdm_init_local_receiver_status
    ap_uart.o(i.uartdm_receive_bytes) refers to ap_uart.o(i.uartdm_start_receiving_data) for uartdm_start_receiving_data
    ap_uart.o(i.uartdm_receive_bytes) refers to ap_uart.o(.bss) for .bss$2
    ap_uart.o(i.uart_packet_init) refers to ap_uart.o(.bss) for .bss$2
    ap_uart.o(i.uart_get_data_from_device) refers to ap_uart.o(i.uartdm_receive_bytes) for uartdm_receive_bytes
    ap_uart.o(i.uart_get_data_from_device) refers to ap_uart.o(.bss) for .bss$2
    ap_uart.o(i.process_packets_uart) refers to ap_uart.o(i.uart_packet_init) for uart_packet_init
    ap_uart.o(i.process_packets_uart) refers to ap_uart.o(i.uart_get_data_from_device) for uart_get_data_from_device
    ap_uart.o(i.process_packets_uart) refers to ap_packet.o(i.packet_handle_incoming) for packet_handle_incoming
    ap_uart.o(i.process_packets_uart) refers to ap_uart.o(.bss) for .bss$2
    ap_uart.o(i.do_uart_check) refers to ap_uart.o(i.process_packets_uart) for process_packets_uart
    ap_uart.o(i.uartdm_init_local_receiver_status) refers to ap_uart.o(.bss) for .bss$2
    ap_uart.o(.data) refers to ap_uart.o(i.uartdm_init) for uartdm_init
    ap_uart.o(.data) refers to ap_uart.o(i.uartdm_active) for uartdm_active
    ap_uart.o(.data) refers to ap_uart.o(i.uartdm_drain) for uartdm_drain
    ap_uart.o(.data) refers to ap_uart.o(i.do_uart_check) for do_uart_check
    ap_uart.o(.data) refers to ap_uart.o(i.uartdm_transmit_byte) for uartdm_transmit_byte
    qhsusb_al_hostdl.o(i.do_usb_check) refers to qhsusb_dcd_ch9.o(i.qhsusb_dcd_poll) for qhsusb_dcd_poll
    qhsusb_al_hostdl.o(i.do_usb_check) refers to qhsusb_al_hostdl.o(.bss) for .bss$2
    qhsusb_al_hostdl.o(i.usb_transmit_byte) refers to qhsusb_fd_hdlc.o(i.qhsusb_fd_hdlc_tx_byte) for qhsusb_fd_hdlc_tx_byte
    qhsusb_al_hostdl.o(i.usb_drain) refers to qhsusb_dcd_ch9.o(i.qhsusb_dcd_poll) for qhsusb_dcd_poll
    qhsusb_al_hostdl.o(i.usb_drain) refers to qhsusb_fd_hdlc.o(i.qhsusb_fd_hdlc_is_tx_active) for qhsusb_fd_hdlc_is_tx_active
    qhsusb_al_hostdl.o(i.usb_drain) refers to qhsusb_al_hostdl.o(.bss) for .bss$2
    qhsusb_al_hostdl.o(i.usb_init) refers to qhsusb_fd_hdlc.o(i.qhsusb_fd_hdlc_init) for qhsusb_fd_hdlc_init
    qhsusb_al_hostdl.o(i.usb_init) refers to qhsusb_dci.o(i.qhsusb_dci_get_time_usec) for qhsusb_dci_get_time_usec
    qhsusb_al_hostdl.o(i.usb_init) refers to qhsusb_dcd_ch9.o(i.qhsusb_dcd_poll) for qhsusb_dcd_poll
    qhsusb_al_hostdl.o(i.usb_init) refers to qhsusb_al_hostdl.o(.data) for .data$0
    qhsusb_al_hostdl.o(i.usb_init) refers to qhsusb_al_hostdl.o(i.ap_rx_complete) for ap_rx_complete
    qhsusb_al_hostdl.o(i.usb_init) refers to qhsusb_al_hostdl.o(.bss) for .bss$2
    qhsusb_al_hostdl.o(i.ap_rx_complete) refers to ap_packet.o(i.packet_handle_incoming_buf) for packet_handle_incoming_buf
    qhsusb_al_hostdl.o(i.ap_rx_complete) refers to qhsusb_fd_hdlc.o(i.qhsusb_fd_hdlc_rx_completed) for qhsusb_fd_hdlc_rx_completed
    qhsusb_al_hostdl.o(.data) refers to qhsusb_al_hostdl.o(i.usb_init) for usb_init
    qhsusb_al_hostdl.o(.data) refers to qhsusb_al_hostdl.o(i.usb_active) for usb_active
    qhsusb_al_hostdl.o(.data) refers to qhsusb_al_hostdl.o(i.usb_drain) for usb_drain
    qhsusb_al_hostdl.o(.data) refers to qhsusb_al_hostdl.o(i.do_usb_check) for do_usb_check
    qhsusb_al_hostdl.o(.data) refers to qhsusb_al_hostdl.o(i.usb_transmit_byte) for usb_transmit_byte
    qhsusb_fd_hdlc.o(i.hdlc_notify_cb) refers to qhsusb_fd_hdlc.o(i.hdlc_init_rx) for hdlc_init_rx
    qhsusb_fd_hdlc.o(i.hdlc_notify_cb) refers to qhsusb_fd_hdlc.o(.data) for .data$0
    qhsusb_fd_hdlc.o(i.qhsusb_fd_hdlc_init) refers to qhsusb_dcd_ch9.o(i.qhsusb_dcd_init) for qhsusb_dcd_init
    qhsusb_fd_hdlc.o(i.qhsusb_fd_hdlc_init) refers to qhsusb_fd_hdlc.o(.data) for .data$0
    qhsusb_fd_hdlc.o(i.qhsusb_fd_hdlc_init) refers to qhsusb_fd_hdlc.o(.bss) for .bss$2
    qhsusb_fd_hdlc.o(i.qhsusb_fd_hdlc_init) refers to qhsusb_fd_hdlc.o(i.hdlc_tx_callback) for hdlc_tx_callback
    qhsusb_fd_hdlc.o(i.qhsusb_fd_hdlc_init) refers to qhsusb_fd_hdlc.o(i.hdlc_rx_callback) for hdlc_rx_callback
    qhsusb_fd_hdlc.o(i.qhsusb_fd_hdlc_shutdown) refers to qhsusb_dcd_ch9.o(i.qhsusb_dcd_shutdown) for qhsusb_dcd_shutdown
    qhsusb_fd_hdlc.o(i.qhsusb_fd_hdlc_shutdown) refers to qhsusb_fd_hdlc.o(.data) for .data$0
    qhsusb_fd_hdlc.o(i.qhsusb_fd_hdlc_tx_byte) refers to qhsusb_dcd_ch9.o(i.qhsusb_dcd_poll) for qhsusb_dcd_poll
    qhsusb_fd_hdlc.o(i.qhsusb_fd_hdlc_tx_byte) refers to qhsusb_dcd_ch9.o(i.qhsusb_submit_urb) for qhsusb_submit_urb
    qhsusb_fd_hdlc.o(i.qhsusb_fd_hdlc_tx_byte) refers to qhsusb_fd_hdlc.o(.bss) for .bss$2
    qhsusb_fd_hdlc.o(i.qhsusb_fd_hdlc_tx_byte) refers to qhsusb_fd_hdlc.o(.data) for .data$0
    qhsusb_fd_hdlc.o(i.qhsusb_fd_hdlc_is_tx_active) refers to qhsusb_fd_hdlc.o(.bss) for .bss$2
    qhsusb_fd_hdlc.o(i.qhsusb_fd_hdlc_is_tx_active) refers to qhsusb_fd_hdlc.o(.data) for .data$0
    qhsusb_fd_hdlc.o(i.qhsusb_fd_hdlc_rx_completed) refers to qhsusb_fd_hdlc.o(i.hdlc_init_rx) for hdlc_init_rx
    qhsusb_fd_hdlc.o(i.hdlc_init_rx) refers to qhsusb_dcd_ch9.o(i.qhsusb_dcd_poll) for qhsusb_dcd_poll
    qhsusb_fd_hdlc.o(i.hdlc_init_rx) refers to qhsusb_dcd_ch9.o(i.qhsusb_submit_urb) for qhsusb_submit_urb
    qhsusb_fd_hdlc.o(i.hdlc_init_rx) refers to qhsusb_fd_hdlc.o(.bss) for .bss$2
    qhsusb_fd_hdlc.o(i.hdlc_init_rx) refers to qhsusb_fd_hdlc.o(.data) for .data$0
    qhsusb_fd_hdlc.o(i.hdlc_rx_callback) refers to qhsusb_fd_hdlc.o(i.hdlc_init_rx) for hdlc_init_rx
    qhsusb_fd_hdlc.o(i.hdlc_rx_callback) refers to qhsusb_fd_hdlc.o(.bss) for .bss$2
    qhsusb_fd_hdlc.o(.data) refers to qhsusb_fd_hdlc.o(.data) for sw_strings
    qhsusb_fd_hdlc.o(.data) refers to qhsusb_fd_hdlc.o(i.hdlc_notify_cb) for hdlc_notify_cb
    qhsusb_fd_hdlc.o(.data) refers to qhsusb_fd_hdlc.o(.data) for str0
    qhsusb_fd_hdlc.o(.data) refers to qhsusb_fd_hdlc.o(.data) for str_manuf
    qhsusb_fd_hdlc.o(.data) refers to qhsusb_fd_hdlc.o(.data) for qhsusb_str_product
    qhsusb_fd_hdlc.o(.data) refers to qhsusb_fd_hdlc.o(.data) for str_serial
    qhsusb_dcd_ch9.o(i.qhsusb_dcd_set_config) refers to qhsusb_dcd_ch9.o(i.dcd_set_interface) for dcd_set_interface
    qhsusb_dcd_ch9.o(i.qhsusb_dcd_set_config) refers to qhsusb_dcd_ch9.o(i.dcd_notify) for dcd_notify
    qhsusb_dcd_ch9.o(i.qhsusb_dcd_set_config) refers to qhsusb_dci.o(i.qhsusb_dci_cancel_transfer) for qhsusb_dci_cancel_transfer
    qhsusb_dcd_ch9.o(i.qhsusb_dcd_set_config) refers to qhsusb_dci.o(i.qhsusb_dci_unconfig_endpoint) for qhsusb_dci_unconfig_endpoint
    qhsusb_dcd_ch9.o(i.qhsusb_submit_urb) refers to qhsusb_dci.o(i.qhsusb_dci_transfer_request) for qhsusb_dci_transfer_request
    qhsusb_dcd_ch9.o(i.qhsusb_dcd_control_transfer) refers to qhsusb_dcd_ch9.o(i.qhsusb_submit_urb) for qhsusb_submit_urb
    qhsusb_dcd_ch9.o(i.qhsusb_dcd_port_status_changed) refers to qhsusb_dci_q1100.o(i.qhsusb_dci_is_attached) for qhsusb_dci_is_attached
    qhsusb_dcd_ch9.o(i.qhsusb_dcd_port_status_changed) refers to qhsusb_dcd_ch9.o(i.dcd_notify) for dcd_notify
    qhsusb_dcd_ch9.o(i.qhsusb_dcd_port_status_changed) refers to qhsusb_dci_q1100.o(i.qhsusb_dci_is_wall_charger) for qhsusb_dci_is_wall_charger
    qhsusb_dcd_ch9.o(i.qhsusb_dcd_port_status_changed) refers to qhsusb_dci_q1100.o(i.qhsusb_dci_connect) for qhsusb_dci_connect
    qhsusb_dcd_ch9.o(i.qhsusb_dcd_port_status_changed) refers to qhsusb_dci.o(i.qhsusb_dci_get_speed) for qhsusb_dci_get_speed
    qhsusb_dcd_ch9.o(i.qhsusb_dcd_port_status_changed) refers to qhsusb_dci.o(i.qhsusb_dci_is_suspended) for qhsusb_dci_is_suspended
    qhsusb_dcd_ch9.o(i.dcd_callback_reset) refers to qhsusb_dcd_ch9.o(i.qhsusb_dcd_port_status_changed) for qhsusb_dcd_port_status_changed
    qhsusb_dcd_ch9.o(i.dcd_callback_reset) refers to qhsusb_dcd_ch9.o(i.qhsusb_dcd_set_config) for qhsusb_dcd_set_config
    qhsusb_dcd_ch9.o(i.dcd_callback_reset) refers to qhsusb_dci.o(i.qhsusb_dci_set_address) for qhsusb_dci_set_address
    qhsusb_dcd_ch9.o(i.dcd_callback_setup) refers to qhsusb_dcd_ch9.o(i.handle_setup_ep) for handle_setup_ep
    qhsusb_dcd_ch9.o(i.dcd_callback_setup) refers to qhsusb_dcd_ch9.o(i.qhsusb_dcd_control_transfer) for qhsusb_dcd_control_transfer
    qhsusb_dcd_ch9.o(i.dcd_callback_setup) refers to qhsusb_dcd_ch9.o(i.dcd_control_reply) for dcd_control_reply
    qhsusb_dcd_ch9.o(i.dcd_callback_setup) refers to qhsusb_dci.o(i.qhsusb_dci_stall_endpoint) for qhsusb_dci_stall_endpoint
    qhsusb_dcd_ch9.o(i.dcd_callback_setup) refers to qhsusb_dcd_ch9.o(i.handle_setup_dev) for handle_setup_dev
    qhsusb_dcd_ch9.o(i.dcd_callback_setup) refers to qhsusb_dcd_ch9.o(i.handle_setup_ifc) for handle_setup_ifc
    qhsusb_dcd_ch9.o(i.qhsusb_dcd_init) refers to qhsusb_dcd_ch9.o(i.dcd_notify) for dcd_notify
    qhsusb_dcd_ch9.o(i.qhsusb_dcd_init) refers to qhsusb_dci.o(i.qhsusb_dci_init) for qhsusb_dci_init
    qhsusb_dcd_ch9.o(i.qhsusb_dcd_init) refers to qhsusb_dci.o(i.qhsusb_dci_start_timer) for qhsusb_dci_start_timer
    qhsusb_dcd_ch9.o(i.qhsusb_dcd_init) refers to qhsusb_dcd_ch9.o(.data) for .data$0
    qhsusb_dcd_ch9.o(i.qhsusb_dcd_poll) refers to qhsusb_dci.o(i.qhsusb_dci_poll_events) for qhsusb_dci_poll_events
    qhsusb_dcd_ch9.o(i.qhsusb_dcd_shutdown) refers to qhsusb_dcd_ch9.o(i.qhsusb_dcd_poll) for qhsusb_dcd_poll
    qhsusb_dcd_ch9.o(i.qhsusb_dcd_shutdown) refers to qhsusb_dcd_ch9.o(i.qhsusb_dcd_set_config) for qhsusb_dcd_set_config
    qhsusb_dcd_ch9.o(i.qhsusb_dcd_shutdown) refers to qhsusb_dci.o(i.qhsusb_dci_shutdown) for qhsusb_dci_shutdown
    qhsusb_dcd_ch9.o(i.dcd_set_interface) refers to qhsusb_dci.o(i.qhsusb_dci_config_endpoint) for qhsusb_dci_config_endpoint
    qhsusb_dcd_ch9.o(i.dcd_control_reply) refers to qhsusb_dcd_ch9.o(i.qhsusb_dcd_control_transfer) for qhsusb_dcd_control_transfer
    qhsusb_dcd_ch9.o(i.handle_setup_dev) refers to qhsusb_dci.o(i.qhsusb_dci_set_address) for qhsusb_dci_set_address
    qhsusb_dcd_ch9.o(i.handle_setup_dev) refers to qhsusb_dcd_ch9.o(i.handle_get_descriptor) for handle_get_descriptor
    qhsusb_dcd_ch9.o(i.handle_setup_dev) refers to qhsusb_dcd_ch9.o(i.dcd_control_reply) for dcd_control_reply
    qhsusb_dcd_ch9.o(i.handle_setup_dev) refers to qhsusb_dcd_ch9.o(i.qhsusb_dcd_set_config) for qhsusb_dcd_set_config
    qhsusb_dcd_ch9.o(i.handle_setup_ifc) refers to qhsusb_dcd_ch9.o(i.dcd_set_interface) for dcd_set_interface
    qhsusb_dcd_ch9.o(i.handle_setup_ifc) refers to qhsusb_dcd_ch9.o(i.dcd_control_reply) for dcd_control_reply
    qhsusb_dcd_ch9.o(i.handle_setup_ep) refers to qhsusb_dcd_ch9.o(i.dcd_control_reply) for dcd_control_reply
    qhsusb_dcd_ch9.o(i.handle_setup_ep) refers to qhsusb_dcd_ch9.o(i.handle_ep_halt) for handle_ep_halt
    qhsusb_dcd_ch9.o(i.handle_get_descriptor) refers to qhsusb_dcd_ch9.o(i.qhsusb_dcd_control_transfer) for qhsusb_dcd_control_transfer
    qhsusb_dcd_ch9.o(i.handle_ep_halt) refers to qhsusb_dci.o(i.qhsusb_dci_stall_endpoint) for qhsusb_dci_stall_endpoint
    qhsusb_dcd_ch9.o(i.handle_ep_halt) refers to qhsusb_dci.o(i.qhsusb_dci_unstall_endpoint) for qhsusb_dci_unstall_endpoint
    qhsusb_dcd_ch9.o(.data) refers to qhsusb_dcd_ch9.o(i.dcd_callback_reset) for dcd_callback_reset
    qhsusb_dcd_ch9.o(.data) refers to qhsusb_dcd_ch9.o(i.dcd_callback_setup) for dcd_callback_setup
    qhsusb_dcd_ch9.o(.data) refers to qhsusb_dcd_ch9.o(i.qhsusb_dcd_port_status_changed) for qhsusb_dcd_port_status_changed
    qhsusb_dci.o(i.qhsusb_dci_init) refers to qhsusb_dci_q1100.o(i.dci_init_phy) for dci_init_phy
    qhsusb_dci.o(i.qhsusb_dci_init) refers to qhsusb_dci.o(i.dci_init_dqh_list) for dci_init_dqh_list
    qhsusb_dci.o(i.qhsusb_dci_init) refers to qhsusb_dci.o(.bss) for .bss$2
    qhsusb_dci.o(i.qhsusb_dci_init) refers to qhsusb_dci_q1100.o(.bss) for dci_core_info
    qhsusb_dci.o(i.qhsusb_dci_init) refers to qhsusb_dci_q1100.o(.data) for dci_core_base_address
    qhsusb_dci.o(i.qhsusb_dci_poll_events) refers to qhsusb_dci.o(i.dci_handle_port_status_changed) for dci_handle_port_status_changed
    qhsusb_dci.o(i.qhsusb_dci_poll_events) refers to qhsusb_dci.o(i.dci_handle_transfer_complete) for dci_handle_transfer_complete
    qhsusb_dci.o(i.qhsusb_dci_poll_events) refers to qhsusb_dci.o(i.dci_handle_setup) for dci_handle_setup
    qhsusb_dci.o(i.qhsusb_dci_poll_events) refers to qhsusb_dci_q1100.o(.data) for dci_core_base_address
    qhsusb_dci.o(i.qhsusb_dci_poll_events) refers to qhsusb_dci_q1100.o(.bss) for dci_core_info
    qhsusb_dci.o(i.qhsusb_dci_poll_events) refers to qhsusb_dci.o(.bss) for .bss$2
    qhsusb_dci.o(i.qhsusb_dci_set_address) refers to qhsusb_dci_q1100.o(.data) for dci_core_base_address
    qhsusb_dci.o(i.qhsusb_dci_set_address) refers to qhsusb_dci.o(.bss) for .bss$2
    qhsusb_dci.o(i.qhsusb_dci_stall_endpoint) refers to qhsusb_dci_q1100.o(.data) for dci_core_base_address
    qhsusb_dci.o(i.qhsusb_dci_unstall_endpoint) refers to qhsusb_dci_q1100.o(.data) for dci_core_base_address
    qhsusb_dci.o(i.qhsusb_dci_config_endpoint) refers to qhsusb_dci.o(.bss) for .bss$2
    qhsusb_dci.o(i.qhsusb_dci_config_endpoint) refers to qhsusb_dci_q1100.o(.data) for dci_core_base_address
    qhsusb_dci.o(i.qhsusb_dci_unconfig_endpoint) refers to qhsusb_dci.o(.bss) for .bss$2
    qhsusb_dci.o(i.qhsusb_dci_unconfig_endpoint) refers to qhsusb_dci_q1100.o(.data) for dci_core_base_address
    qhsusb_dci.o(i.qhsusb_dci_transfer_request) refers to qhsusb_dci.o(i.transfer_data_request) for transfer_data_request
    qhsusb_dci.o(i.qhsusb_dci_transfer_request) refers to qhsusb_dci_q1100.o(.data) for dci_core_base_address
    qhsusb_dci.o(i.qhsusb_dci_transfer_request) refers to qhsusb_dci.o(.bss) for .bss$2
    qhsusb_dci.o(i.qhsusb_dci_cancel_transfer) refers to qhsusb_dci_q1100.o(i.dci_dcache_inval) for dci_dcache_inval
    qhsusb_dci.o(i.qhsusb_dci_cancel_transfer) refers to qhsusb_dci_q1100.o(.data) for dci_core_base_address
    qhsusb_dci.o(i.qhsusb_dci_cancel_transfer) refers to qhsusb_dci.o(.bss) for .bss$2
    qhsusb_dci.o(i.qhsusb_dci_shutdown) refers to qhsusb_dci.o(i.qhsusb_dci_cancel_transfer) for qhsusb_dci_cancel_transfer
    qhsusb_dci.o(i.qhsusb_dci_shutdown) refers to qhsusb_dci.o(i.qhsusb_dci_unconfig_endpoint) for qhsusb_dci_unconfig_endpoint
    qhsusb_dci.o(i.qhsusb_dci_start_timer) refers to qhsusb_dci.o(.bss) for .bss$2
    qhsusb_dci.o(i.qhsusb_dci_start_timer) refers to qhsusb_dci_q1100.o(.data) for dci_core_base_address
    qhsusb_dci.o(i.qhsusb_dci_stop_timer) refers to qhsusb_dci_q1100.o(.data) for dci_core_base_address
    qhsusb_dci.o(i.qhsusb_dci_stop_timer) refers to qhsusb_dci.o(.bss) for .bss$2
    qhsusb_dci.o(i.qhsusb_dci_get_time_usec) refers to qhsusb_dci_q1100.o(.data) for dci_core_base_address
    qhsusb_dci.o(i.qhsusb_dci_get_speed) refers to qhsusb_dci_q1100.o(.data) for dci_core_base_address
    qhsusb_dci.o(i.qhsusb_dci_is_suspended) refers to qhsusb_dci_q1100.o(.data) for dci_core_base_address
    qhsusb_dci.o(i.dci_init_dqh_list) refers to rt_memclr_w.o(.text) for __rt_memclr_w
    qhsusb_dci.o(i.dci_init_dqh_list) refers to qhsusb_dci_q1100.o(i.dci_dcache_flush) for dci_dcache_flush
    qhsusb_dci.o(i.dci_init_dqh_list) refers to qhsusb_dci.o(.bss) for .bss$2
    qhsusb_dci.o(i.dci_handle_setup) refers to qhsusb_dci_q1100.o(i.dci_dcache_inval) for dci_dcache_inval
    qhsusb_dci.o(i.dci_handle_setup) refers to qhsusb_dci_q1100.o(.data) for dci_core_base_address
    qhsusb_dci.o(i.dci_handle_setup) refers to qhsusb_dci.o(.bss) for .bss$2
    qhsusb_dci.o(i.dci_handle_setup) refers to qhsusb_dci_q1100.o(.bss) for dci_core_info
    qhsusb_dci.o(i.dci_handle_transfer_complete) refers to qhsusb_dci_q1100.o(i.dci_dcache_inval) for dci_dcache_inval
    qhsusb_dci.o(i.dci_handle_transfer_complete) refers to qhsusb_dci_q1100.o(.data) for dci_core_base_address
    qhsusb_dci.o(i.dci_handle_transfer_complete) refers to qhsusb_dci.o(.bss) for .bss$2
    qhsusb_dci.o(i.dci_handle_port_status_changed) refers to qhsusb_dci_q1100.o(.bss) for dci_core_info
    qhsusb_dci.o(i.dci_handle_port_status_changed) refers to qhsusb_dci.o(.bss) for .bss$2
    qhsusb_dci.o(i.transfer_data_request) refers to rt_memclr_w.o(.text) for __rt_memclr_w
    qhsusb_dci.o(i.transfer_data_request) refers to qhsusb_dci_q1100.o(i.dci_dcache_flush) for dci_dcache_flush
    qhsusb_dci.o(i.transfer_data_request) refers to qhsusb_dci.o(.bss) for .bss$2
    qhsusb_dci.o(i.transfer_data_request) refers to qhsusb_dci_q1100.o(.data) for dci_core_base_address
    qhsusb_dci_q1100.o(i.qhsusb_dci_is_attached) refers to qhsusb_dci_q1100.o(.bss) for .bss$2
    qhsusb_dci_q1100.o(i.qhsusb_dci_is_connected) refers to qhsusb_dci_q1100.o(.bss) for .bss$2
    qhsusb_dci_q1100.o(i.qhsusb_dci_connect) refers to qhsusb_dci_q1100.o(.bss) for .bss$2
    qhsusb_dci_q1100.o(i.qhsusb_dci_disconnect) refers to qhsusb_dci_q1100.o(.bss) for .bss$2
    qhsusb_dci_q1100.o(i.dci_init_phy) refers to qhsusb_dci_q1100.o(.data) for dci_core_base_address
    crc.o(i.crc_16_calc) refers to crc.o(.constdata) for .constdata$1
    crc.o(i.crc_16_l_calc) refers to crc.o(.constdata) for .constdata$1
    crc.o(i.crc_30_calc) refers to crc.o(.constdata) for .constdata$1
    crc.o(i.crc_30_step) refers to crc.o(.constdata) for .constdata$1
    crc.o(i.crc_16_step) refers to crc.o(.constdata) for .constdata$1
    crc.o(i.crc_16_l_step) refers to crc.o(.constdata) for .constdata$1
    crc.o(i.crc_32_calc) refers to crc.o(.constdata) for .constdata$1
    ap_flash.o(i.flash_device_init_data) refers to ap_flash.o(.data) for flash_dev_type
    ap_flash.o(i.flash_device_init_data) refers to ap_flash.o(.bss) for .bss$2
    ap_flash.o(i.flash_device_probe) refers to flash_common.o(i.flash_open) for flash_open
    ap_flash.o(i.flash_device_probe) refers to flash_common.o(i.flash_close) for flash_close
    ap_flash.o(i.flash_device_probe) refers to ap_flash.o(.bss) for .bss$2
    ap_flash.o(i.flash_device_probe) refers to ap_flash.o(.constdata) for .constdata$1
    ap_flash.o(i.flash_device_probe) refers to ap_flash.o(.data) for flash_dev_type
    ap_flash.o(i.flash_device_probe) refers to ap_armprg.o(.bss) for disptbl
    ap_flash.o(i.do_simple_write) refers to ap_flash.o(i.flash_device_probe) for flash_device_probe
    ap_flash.o(i.do_simple_write) refers to ap_flash.o(.bss) for .bss$2
    ap_flash.o(i.do_simple_write) refers to ap_flash.o(.data) for flash_dev_type
    ap_flash.o(i.do_stream_write) refers to ap_flash.o(i.flash_device_probe) for flash_device_probe
    ap_flash.o(i.do_stream_write) refers to ap_flash.o(.bss) for .bss$2
    ap_flash.o(i.do_stream_write) refers to ap_flash.o(.data) for flash_dev_type
    ap_flash.o(i.do_stream_write) refers to ap_armprg.o(.bss) for disptbl
    ap_flash.o(i.flash_device_name) refers to ap_flash.o(i.flash_device_probe) for flash_device_probe
    ap_flash.o(i.flash_device_name) refers to ap_flash.o(.data) for flash_dev_type
    ap_flash.o(i.flash_device_name) refers to ap_flash.o(.bss) for .bss$2
    ap_flash.o(i.flash_device_sectors) refers to ap_flash.o(i.flash_device_probe) for flash_device_probe
    ap_flash.o(i.flash_device_sectors) refers to ap_flash.o(.data) for flash_dev_type
    ap_flash.o(i.flash_device_sectors) refers to ap_flash.o(.bss) for .bss$2
    ap_id.o(.data) refers to ap_id.o(.constdata) for .constdata$6
    rt_memcpy.o(.text) refers to rt_memcpy_w.o(.text) for _memcpy_lastbytes
    rt_memmove.o(.text) refers to rt_memcpy.o(.text) for __rt_memcpy
    rt_memmove.o(.text) refers to rt_memmove_w.o(.text) for __memmove_aligned
    rt_memset.o(.text) refers to rt_memclr.o(.text) for _memset
    rt_udiv.o(.text) refers to rt_div0.o(.text) for __rt_div0
    rt_div0.o(.text) refers to rt_raise.o(.text) for __rt_raise
    rt_memclr.o(.text) refers to rt_memclr_w.o(.text) for _memset_w
    rt_memmove_w.o(.text) refers to rt_memcpy_w.o(.text) for __rt_memcpy_w
    rt_raise.o(.text) refers to __raise.o(.text) for __raise
    rt_raise.o(.text) refers to sys_exit.o(.text) for _sys_exit
    __raise.o(.text) refers to defsig.o(.text) for __default_signal_handler
    __raise.o(.text) refers to callvia.o(.text) for __call_via_r2
    sys_exit.o(.text) refers to use_semi.o(.text) for __I_use_semihosting_swi
    defsig.o(.text) refers to sys_wrch.o(.text) for _ttywrch
    defsig.o(.text) refers to defsig.o(.constdata) for .constdata$1
    sys_wrch.o(.text) refers (Special) to use_semi.o(.text) for __I_use_semihosting_swi


================================================================================

Image Symbol Table

    Mapping Symbols

    Sym    Value        Execution Region

    $a     0x08050028   CODE
    $t     0x0805009c   CODE
    $d     0x0805009e   CODE
    $a     0x080500a0   CODE
    $d     0x080500bc   CODE
    $t     0x080500c0   CODE
    $d     0x080500c2   CODE
    $a     0x080500c4   CODE
    $t     0x080500e0   CODE
    $d     0x080500e2   CODE
    $a     0x080500e4   CODE
    $t     0x08050100   CODE
    $d     0x08050102   CODE
    $a     0x08050104   CODE
    $d     0x0805010c   CODE
    $f     0x08050120   CODE
    $f     0x08050124   CODE
    $f     0x08050128   CODE
    $f     0x08050130   CODE
    $t     0x08050134   CODE
    $d     0x0805018a   CODE
    $t     0x0805018c   CODE
    $d     0x0805018e   CODE
    $a     0x08050190   CODE
    $t     0x080501e8   CODE
    $d     0x080501ea   CODE
    $a     0x080501ec   CODE
    $t     0x080502a0   CODE
    $d     0x080502a2   CODE
    $a     0x080502a4   CODE
    $t     0x08050310   CODE
    $d     0x08050312   CODE
    $a     0x08050314   CODE
    $t     0x080503d4   CODE
    $d     0x08050420   CODE
    $t     0x08050424   CODE
    $d     0x08050426   CODE
    $a     0x08050428   CODE
    $t     0x08050434   CODE
    $d     0x08050436   CODE
    $a     0x08050438   CODE
    $t     0x08050454   CODE
    $b     0x08050462   CODE
    $b     0x08050470   CODE
    $b     0x08050486   CODE
    $d     0x0805048e   CODE
    $t     0x08050498   CODE
    $d     0x0805049a   CODE
    $a     0x0805049c   CODE
    $d     0x080504ac   CODE
    $f     0x080504ac   CODE
    $t     0x080504b4   CODE
    $b     0x08050520   CODE
    $b     0x0805052e   CODE
    $b     0x08050542   CODE
    $b     0x0805054e   CODE
    $d     0x0805055a   CODE
    $t     0x080505dc   CODE
    $d     0x080505de   CODE
    $a     0x080505e0   CODE
    $t     0x080505e4   CODE
    $d     0x080505f6   CODE
    $a     0x080505f8   CODE
    $p     0x08050700   CODE
    $d     0x0805079c   CODE
    $a     0x080507a8   CODE
    $d     0x08050824   CODE
    $a     0x0805082c   CODE
    $d     0x08050850   CODE
    $a     0x08050854   CODE
    $d     0x08050990   CODE
    $a     0x08050998   CODE
    $d     0x08050a08   CODE
    $a     0x08050a10   CODE
    $d     0x08050a9c   CODE
    $a     0x08050aa4   CODE
    $d     0x08050ae8   CODE
    $a     0x08050aec   CODE
    $p     0x08050bc4   CODE
    $a     0x08050bcc   CODE
    $p     0x08050c6c   CODE
    $d     0x08050c70   CODE
    $a     0x08050c78   CODE
    $p     0x08050d18   CODE
    $d     0x08050d1c   CODE
    $a     0x08050d30   CODE
    $p     0x08050dcc   CODE
    $d     0x08050df4   CODE
    $a     0x08050dfc   CODE
    $d     0x08050e90   CODE
    $a     0x08050e98   CODE
    $d     0x08050eb0   CODE
    $a     0x08050eb4   CODE
    $p     0x08050f3c   CODE
    $d     0x08050f50   CODE
    $a     0x08050f58   CODE
    $p     0x08051038   CODE
    $p     0x08051090   CODE
    $p     0x080510c4   CODE
    $p     0x080510e0   CODE
    $p     0x08051130   CODE
    $d     0x08051144   CODE
    $a     0x08051158   CODE
    $d     0x08051168   CODE
    $a     0x0805116c   CODE
    $d     0x0805119c   CODE
    $a     0x080511a4   CODE
    $d     0x080511d4   CODE
    $a     0x080511dc   CODE
    $p     0x08051260   CODE
    $p     0x080512f8   CODE
    $d     0x0805137c   CODE
    $a     0x08051394   CODE
    $d     0x08051454   CODE
    $a     0x08051460   CODE
    $d     0x08051520   CODE
    $a     0x08051528   CODE
    $p     0x080515ac   CODE
    $d     0x08051630   CODE
    $a     0x08051640   CODE
    $d     0x080516f4   CODE
    $a     0x080516fc   CODE
    $d     0x0805177c   CODE
    $a     0x08051784   CODE
    $p     0x080517c4   CODE
    $d     0x080517e0   CODE
    $a     0x080517ec   CODE
    $d     0x080518a4   CODE
    $a     0x080518ac   CODE
    $p     0x0805193c   CODE
    $d     0x080519ec   CODE
    $a     0x080519f8   CODE
    $p     0x08051a40   CODE
    $p     0x08051a90   CODE
    $d     0x08051b90   CODE
    $a     0x08051b9c   CODE
    $d     0x08051f04   CODE
    $a     0x08051f14   CODE
    $p     0x08052050   CODE
    $d     0x080520dc   CODE
    $a     0x080520ec   CODE
    $p     0x08052150   CODE
    $p     0x08052184   CODE
    $d     0x0805218c   CODE
    $a     0x08052190   CODE
    $d     0x080521f0   CODE
    $a     0x080521f8   CODE
    $p     0x08052338   CODE
    $p     0x08052348   CODE
    $p     0x08052370   CODE
    $p     0x08052390   CODE
    $p     0x080523a4   CODE
    $p     0x080523b4   CODE
    $p     0x080523d4   CODE
    $p     0x080523e4   CODE
    $p     0x08052400   CODE
    $p     0x08052414   CODE
    $d     0x08052418   CODE
    $a     0x08052424   CODE
    $p     0x0805247c   CODE
    $d     0x0805249c   CODE
    $a     0x080524a0   CODE
    $p     0x080524fc   CODE
    $a     0x0805253c   CODE
    $p     0x08052598   CODE
    $a     0x080525a0   CODE
    $p     0x080525c0   CODE
    $d     0x080525dc   CODE
    $a     0x080525e0   CODE
    $p     0x08052668   CODE
    $d     0x08052680   CODE
    $a     0x08052688   CODE
    $p     0x080526a8   CODE
    $d     0x080526d0   CODE
    $a     0x080526d4   CODE
    $p     0x08052760   CODE
    $d     0x0805277c   CODE
    $a     0x08052780   CODE
    $p     0x08052808   CODE
    $p     0x080528b4   CODE
    $d     0x080528c0   CODE
    $a     0x080528c8   CODE
    $p     0x08052930   CODE
    $p     0x08052964   CODE
    $p     0x08052974   CODE
    $p     0x08052988   CODE
    $d     0x080529ac   CODE
    $a     0x080529bc   CODE
    $d     0x08052a90   CODE
    $a     0x08052a94   CODE
    $p     0x08052ac4   CODE
    $p     0x08052b18   CODE
    $p     0x08052b94   CODE
    $p     0x08052c38   CODE
    $d     0x08052c44   CODE
    $a     0x08052c4c   CODE
    $d     0x08052ca0   CODE
    $a     0x08052ca8   CODE
    $p     0x08052d20   CODE
    $p     0x08052d30   CODE
    $p     0x08052d90   CODE
    $d     0x08052da8   CODE
    $a     0x08052dbc   CODE
    $p     0x08052e24   CODE
    $d     0x08052e60   CODE
    $a     0x08052e68   CODE
    $p     0x08052e98   CODE
    $d     0x08052f18   CODE
    $a     0x08052f20   CODE
    $p     0x08052f54   CODE
    $p     0x08053054   CODE
    $d     0x08053060   CODE
    $a     0x08053070   CODE
    $p     0x080530a8   CODE
    $p     0x080530dc   CODE
    $p     0x080530ec   CODE
    $p     0x08053100   CODE
    $d     0x08053124   CODE
    $a     0x08053130   CODE
    $d     0x08053204   CODE
    $a     0x08053208   CODE
    $p     0x08053224   CODE
    $d     0x08053278   CODE
    $a     0x08053284   CODE
    $p     0x080532b4   CODE
    $p     0x08053314   CODE
    $p     0x08053324   CODE
    $p     0x08053384   CODE
    $d     0x0805339c   CODE
    $a     0x080533b4   CODE
    $p     0x080533e4   CODE
    $d     0x08053464   CODE
    $a     0x0805346c   CODE
    $d     0x08053484   CODE
    $a     0x08053488   CODE
    $d     0x08053730   CODE
    $a     0x08053760   CODE
    $d     0x08053778   CODE
    $a     0x0805377c   CODE
    $d     0x08053794   CODE
    $a     0x08053798   CODE
    $d     0x080537b0   CODE
    $a     0x080537b4   CODE
    $d     0x080537cc   CODE
    $a     0x080537d0   CODE
    $d     0x08053800   CODE
    $a     0x0805380c   CODE
    $p     0x08053844   CODE
    $d     0x08053854   CODE
    $a     0x08053864   CODE
    $d     0x0805387c   CODE
    $a     0x08053880   CODE
    $p     0x08053968   CODE
    $a     0x08053974   CODE
    $p     0x080539e4   CODE
    $a     0x08053a60   CODE
    $p     0x08053b48   CODE
    $a     0x08053b54   CODE
    $d     0x08053c0c   CODE
    $a     0x08053c20   CODE
    $d     0x08053d24   CODE
    $a     0x08053d34   CODE
    $d     0x08053e38   CODE
    $a     0x08053e48   CODE
    $d     0x08053e94   CODE
    $a     0x08053e9c   CODE
    $d     0x08053f14   CODE
    $a     0x08053f1c   CODE
    $d     0x08053f74   CODE
    $a     0x08053f78   CODE
    $p     0x08053f98   CODE
    $d     0x08053f9c   CODE
    $a     0x08053fa0   CODE
    $p     0x08053fbc   CODE
    $p     0x08053fd0   CODE
    $p     0x08053fec   CODE
    $d     0x08053ff4   CODE
    $a     0x08054000   CODE
    $d     0x080540e8   CODE
    $a     0x080540f0   CODE
    $d     0x08054140   CODE
    $a     0x0805414c   CODE
    $d     0x08054178   CODE
    $a     0x08054184   CODE
    $d     0x08054250   CODE
    $a     0x08054258   CODE
    $d     0x08054324   CODE
    $a     0x0805432c   CODE
    $d     0x08054394   CODE
    $a     0x080543a0   CODE
    $p     0x080543b8   CODE
    $d     0x080543cc   CODE
    $a     0x080543d4   CODE
    $p     0x080543e4   CODE
    $p     0x08054424   CODE
    $p     0x080544d8   CODE
    $d     0x08054510   CODE
    $a     0x0805452c   CODE
    $d     0x0805457c   CODE
    $a     0x08054580   CODE
    $d     0x080545d0   CODE
    $a     0x080545d8   CODE
    $d     0x08054698   CODE
    $a     0x0805469c   CODE
    $d     0x080547f0   CODE
    $a     0x080547f4   CODE
    $p     0x080549b0   CODE
    $d     0x080549bc   CODE
    $a     0x080549c4   CODE
    $d     0x08054a68   CODE
    $a     0x08054a78   CODE
    $d     0x08054a88   CODE
    $a     0x08054a8c   CODE
    $d     0x08054aa4   CODE
    $a     0x08054aa8   CODE
    $d     0x08054af4   CODE
    $a     0x08054af8   CODE
    $d     0x08054b8c   CODE
    $a     0x08054b9c   CODE
    $d     0x08054bac   CODE
    $a     0x08054bb0   CODE
    $d     0x08054bcc   CODE
    $a     0x08054bd0   CODE
    $p     0x08054c18   CODE
    $d     0x08054c54   CODE
    $a     0x08054c60   CODE
    $d     0x08054c80   CODE
    $a     0x08054c88   CODE
    $d     0x08054cc8   CODE
    $a     0x08054cd0   CODE
    $d     0x08054d3c   CODE
    $a     0x08054d44   CODE
    $d     0x08054de0   CODE
    $a     0x08054de8   CODE
    $d     0x08054e4c   CODE
    $a     0x08054e54   CODE
    $d     0x08054e90   CODE
    $a     0x08054e98   CODE
    $d     0x08054f80   CODE
    $f     0x08054fa4   CODE
    $f     0x08054fb0   CODE
    $a     0x08054fb4   CODE
    $d     0x08054fd8   CODE
    $a     0x08054fe0   CODE
    $d     0x08055058   CODE
    $a     0x08055060   CODE
    $d     0x080550b4   CODE
    $a     0x080550b8   CODE
    $d     0x08055150   CODE
    $a     0x08055154   CODE
    $d     0x080551dc   CODE
    $a     0x080551e0   CODE
    $d     0x080552e4   CODE
    $a     0x080552f4   CODE
    $d     0x0805536c   CODE
    $a     0x08055374   CODE
    $d     0x080553ac   CODE
    $a     0x080553b4   CODE
    $d     0x080553d8   CODE
    $a     0x080553e0   CODE
    $d     0x08055448   CODE
    $a     0x0805544c   CODE
    $d     0x08055480   CODE
    $a     0x08055484   CODE
    $d     0x080554a8   CODE
    $a     0x080554ac   CODE
    $d     0x08055724   CODE
    $a     0x08055730   CODE
    $d     0x080557a4   CODE
    $a     0x080557a8   CODE
    $d     0x080557d4   CODE
    $a     0x080557d8   CODE
    $d     0x0805585c   CODE
    $f     0x08055860   CODE
    $a     0x0805586c   CODE
    $d     0x080558c8   CODE
    $d     0x080558d0   APP_RAM
    $f     0x08056998   APP_RAM
    $f     0x0805699c   APP_RAM
    $f     0x080569a0   APP_RAM
    $f     0x080569a4   APP_RAM
    $f     0x080569a8   APP_RAM
    $f     0x080569ac   APP_RAM
    $f     0x080569b0   APP_RAM
    $f     0x080569b4   APP_RAM
    $f     0x080569b8   APP_RAM
    $f     0x080569bc   APP_RAM
    $f     0x080569c0   APP_RAM
    $f     0x080569c4   APP_RAM
    $f     0x080569c8   APP_RAM
    $f     0x080569cc   APP_RAM
    $f     0x080569d0   APP_RAM
    $f     0x080569d4   APP_RAM
    $f     0x080569d8   APP_RAM
    $f     0x080569dc   APP_RAM
    $f     0x080569e0   APP_RAM
    $f     0x080569e4   APP_RAM
    $f     0x080569e8   APP_RAM
    $f     0x080569ec   APP_RAM
    $f     0x080569f0   APP_RAM
    $f     0x080569f4   APP_RAM
    $f     0x080569f8   APP_RAM
    $f     0x080569fc   APP_RAM
    $f     0x08056a00   APP_RAM
    $f     0x08056a04   APP_RAM
    $d     0x08056a08   APP_RAM
    $f     0x08056a2c   APP_RAM
    $f     0x08056a34   APP_RAM
    $f     0x08056a3c   APP_RAM
    $d     0x08056a48   APP_RAM
    $f     0x08056a48   APP_RAM
    $f     0x08056a54   APP_RAM
    $f     0x08056a58   APP_RAM
    $f     0x08056a5c   APP_RAM
    $f     0x08056a6c   APP_RAM
    $f     0x08056a70   APP_RAM
    $f     0x08056a74   APP_RAM
    $f     0x08056a78   APP_RAM
    $f     0x08056a7c   APP_RAM
    $f     0x08056a80   APP_RAM
    $f     0x08056a84   APP_RAM
    $f     0x08056a88   APP_RAM
    $f     0x08056a8c   APP_RAM
    $f     0x08056a90   APP_RAM
    $f     0x08056a94   APP_RAM
    $f     0x08056a98   APP_RAM
    $f     0x08056ac8   APP_RAM
    $f     0x08056ad4   APP_RAM
    $d     0x08056ad8   APP_RAM
    $f     0x08056ad8   APP_RAM
    $f     0x08056adc   APP_RAM
    $f     0x08056ae0   APP_RAM
    $d     0x08056ae4   APP_RAM
    $f     0x08056af0   APP_RAM
    $f     0x08056af4   APP_RAM
    $f     0x08056af8   APP_RAM
    $f     0x08056afc   APP_RAM
    $f     0x08056b00   APP_RAM
    $f     0x08056b04   APP_RAM
    $f     0x08056b08   APP_RAM
    $d     0x08056b18   APP_RAM
    $f     0x08056bfc   APP_RAM
    $f     0x08056c00   APP_RAM
    $f     0x08056c04   APP_RAM
    $f     0x08056c08   APP_RAM
    $f     0x08056c0c   APP_RAM
    $f     0x08056c10   APP_RAM
    $f     0x08056c14   APP_RAM
    $d     0x08056c24   APP_RAM
    $f     0x08056c24   APP_RAM
    $f     0x08056c28   APP_RAM
    $f     0x08056c2c   APP_RAM
    $f     0x08056c30   APP_RAM
    $f     0x08056c34   APP_RAM
    $f     0x08056c38   APP_RAM
    $f     0x08056c3c   APP_RAM
    $d     0x08056c4c   APP_RAM
    $f     0x08056e04   APP_RAM
    $f     0x08056e08   APP_RAM
    $f     0x08056e0c   APP_RAM
    $f     0x08056e10   APP_RAM
    $f     0x08056e14   APP_RAM
    $f     0x08056e18   APP_RAM
    $f     0x08056e1c   APP_RAM
    $d     0x08056e2c   APP_RAM
    $f     0x08056e2c   APP_RAM
    $f     0x08056e30   APP_RAM
    $f     0x08056e34   APP_RAM
    $f     0x08056e38   APP_RAM
    $f     0x08056e3c   APP_RAM
    $f     0x08056e40   APP_RAM
    $f     0x08056e44   APP_RAM
    $d     0x08056e54   APP_RAM
    $f     0x0805700c   APP_RAM
    $f     0x08057010   APP_RAM
    $f     0x08057014   APP_RAM
    $f     0x08057018   APP_RAM
    $f     0x0805701c   APP_RAM
    $d     0x08057020   APP_RAM
    $f     0x0805703c   APP_RAM
    $f     0x08057040   APP_RAM
    $f     0x08057044   APP_RAM
    $f     0x08057048   APP_RAM
    $f     0x0805704c   APP_RAM
    $d     0x08057050   APP_RAM
    $f     0x080570e4   APP_RAM
    $d     0x08057168   APP_RAM
    $f     0x08057210   APP_RAM
    $f     0x08057214   APP_RAM
    $f     0x08057218   APP_RAM
    $d     0x0805721c   APP_RAM

    Local Symbols

    Symbol Name                              Value     Ov Type        Size  Object(Section)

    norprg/ap_startup.i                      0x00000000   Number         0  ap_startup.o ABSOLUTE
    <Anonymous Symbol>                       0x00000000   Data          96  ap_startup.o(.debug_info)
    BootRom                                  0x08050028   ARM Code     268  ap_startup.o(BootRom)
    <Anonymous Symbol>                       0x00000000   Data         132  ap_startup.o(.debug_line)
    <Anonymous Symbol>                       0x00000000   Data          16  ap_startup.o(.debug_abbrev)
    swbp                                     0x080500bc   Data           4  ap_startup.o(BootRom)
    term_put_arm                             0x080500c4   ARM Code       0  ap_startup.o(BootRom)
    put_again                                0x080500c8   ARM Code       0  ap_startup.o(BootRom)
    term_get_arm                             0x080500e4   ARM Code       0  ap_startup.o(BootRom)
    get_again                                0x080500e8   ARM Code       0  ap_startup.o(BootRom)
    jmp_abs_arm                              0x08050104   ARM Code       0  ap_startup.o(BootRom)
    ap_armprg.c                              0x00000000   Number         0  ap_armprg.o ABSOLUTE
    i.init_interface_to_host                 0x08053fb0   ARM Code       0  ap_armprg.o(i.init_interface_to_host)
    .bss                                     0x0805ba2c   Data           0  ap_armprg.o(.bss)
    .bss                                     0x0805bb2c   Data           0  ap_armprg.o(.bss)
    .bss                                     0x08057228   Data           0  ap_armprg.o(.bss)
    .constdata                               0x080558d0   Data           0  ap_armprg.o(.constdata)
    .bss                                     0x0805722c   Data           0  ap_armprg.o(.bss)
    .bss                                     0x0805b22c   Data           0  ap_armprg.o(.bss)
    i.main_c                                 0x080540f0   ARM Code       0  ap_armprg.o(i.main_c)
    C$debug_frame733                         0x00000000   Data           0  ap_armprg.o(.debug_frame)
    C$debug_loc732                           0x00000000   Data           0  ap_armprg.o(.debug_loc)
    C$debug_macinfo5                         0x00000000   Data           0  ap_armprg.o(.debug_macinfo)
    C$debug_pubnames718                      0x00000000   Data           0  ap_armprg.o(.debug_pubnames)
    C$debug_abbrev0                          0x00000010   Data           0  ap_armprg.o(.debug_abbrev)
    C$debug_pubnames724                      0x00000030   Data           0  ap_armprg.o(.debug_pubnames)
    C$debug_frame739                         0x0000004c   Data           0  ap_armprg.o(.debug_frame)
    C$debug_pubnames730                      0x00000050   Data           0  ap_armprg.o(.debug_pubnames)
    C$debug_info21                           0x00000060   Data           0  ap_armprg.o(.debug_info)
    C$debug_loc738                           0x00000078   Data           0  ap_armprg.o(.debug_loc)
    C$debug_pubnames4                        0x00000080   Data           0  ap_armprg.o(.debug_pubnames)
    C$debug_line728                          0x00000084   Data           0  ap_armprg.o(.debug_line)
    C$debug_line2                            0x000000e4   Data           0  ap_armprg.o(.debug_line)
    C$debug_pubnames736                      0x00000108   Data           0  ap_armprg.o(.debug_pubnames)
    C$debug_pubnames22                       0x00000128   Data           0  ap_armprg.o(.debug_pubnames)
    C$debug_info717                          0x00000208   Data           0  ap_armprg.o(.debug_info)
    C$debug_pubnames10                       0x00000218   Data           0  ap_armprg.o(.debug_pubnames)
    C$debug_macinfo23                        0x00000248   Data           0  ap_armprg.o(.debug_macinfo)
    C$debug_info723                          0x000002c8   Data           0  ap_armprg.o(.debug_info)
    C$debug_info729                          0x00000344   Data           0  ap_armprg.o(.debug_info)
    C$debug_info9                            0x00000400   Data           0  ap_armprg.o(.debug_info)
    C$debug_info3                            0x00000934   Data           0  ap_armprg.o(.debug_info)
    C$debug_info735                          0x00000a68   Data           0  ap_armprg.o(.debug_info)
    C$debug_macinfo11                        0x00000bf8   Data           0  ap_armprg.o(.debug_macinfo)
    C$debug_macinfo707                       0x00000d98   Data           0  ap_armprg.o(.debug_macinfo)
    C$debug_line734                          0x0000275c   Data           0  ap_armprg.o(.debug_line)
    C$debug_line20                           0x000027c0   Data           0  ap_armprg.o(.debug_line)
    C$debug_line8                            0x00002820   Data           0  ap_armprg.o(.debug_line)
    C$debug_line704                          0x00002884   Data           0  ap_armprg.o(.debug_line)
    .constdata$1                             0x080558d0   Data           0  ap_armprg.o(.constdata)
    .bss$2                                   0x08057228   Data           0  ap_armprg.o(.bss)
    .bss$7                                   0x0805722c   Data           0  ap_armprg.o(.bss)
    .bss$12                                  0x0805b22c   Data           0  ap_armprg.o(.bss)
    .bss$17                                  0x0805ba2c   Data           0  ap_armprg.o(.bss)
    .bss$22                                  0x0805bb2c   Data           0  ap_armprg.o(.bss)
    ap_packet.c                              0x00000000   Number         0  ap_packet.o ABSOLUTE
    i.handle_parti_tbl                       0x080537b4   ARM Code       0  ap_packet.o(i.handle_parti_tbl)
    i.handle_invalid                         0x08053760   ARM Code       0  ap_packet.o(i.handle_invalid)
    i.handle_security_mode                   0x08053864   ARM Code       0  ap_packet.o(i.handle_security_mode)
    i.compute_reply_crc                      0x080509c8   ARM Code       0  ap_packet.o(i.compute_reply_crc)
    .data                                    0x0805698c   Data           0  ap_packet.o(.data)
    i.xmit_log_message                       0x08055870   ARM Code       0  ap_packet.o(i.xmit_log_message)
    i.process_current_packet                 0x0805452c   ARM Code       0  ap_packet.o(i.process_current_packet)
    i.handle_hello                           0x080535c8   ARM Code       0  ap_packet.o(i.handle_hello)
    i.packet_loop                            0x080543a0   ARM Code       0  ap_packet.o(i.packet_loop)
    i.handle_power_off                       0x080537d0   ARM Code       0  ap_packet.o(i.handle_power_off)
    i.handle_reset                           0x0805380c   ARM Code       0  ap_packet.o(i.handle_reset)
    i.my_strlen                              0x08054188   ARM Code       0  ap_packet.o(i.my_strlen)
    .constdata                               0x080558d8   Data           0  ap_packet.o(.constdata)
    i.handle_open_multi                      0x08053798   ARM Code       0  ap_packet.o(i.handle_open_multi)
    i.handle_close                           0x0805346c   ARM Code       0  ap_packet.o(i.handle_close)
    i.handle_sync                            0x08053e48   ARM Code       0  ap_packet.o(i.handle_sync)
    i.handle_simple_write                    0x08053c20   ARM Code       0  ap_packet.o(i.handle_simple_write)
    i.handle_open                            0x0805377c   ARM Code       0  ap_packet.o(i.handle_open)
    i.handle_simple_read                     0x08053b54   ARM Code       0  ap_packet.o(i.handle_simple_read)
    i.packet_process                         0x080543d4   ARM Code       0  ap_packet.o(i.packet_process)
    i.packet_handle_incoming                 0x080541a4   ARM Code       0  ap_packet.o(i.packet_handle_incoming)
    i.force_xmit_reply                       0x08052328   ARM Code       0  ap_packet.o(i.force_xmit_reply)
    i.handle_stream_write                    0x08053d34   ARM Code       0  ap_packet.o(i.handle_stream_write)
    i.transmit_error                         0x080552f4   ARM Code       0  ap_packet.o(i.transmit_error)
    i.packet_init                            0x0805432c   ARM Code       0  ap_packet.o(i.packet_init)
    .bss                                     0x0805bc2c   Data           0  ap_packet.o(.bss)
    i.packet_handle_incoming_buf             0x08054258   ARM Code       0  ap_packet.o(i.packet_handle_incoming_buf)
    C$debug_abbrev0                          0x00000010   Data           0  ap_armprg.o(.debug_abbrev)
    C$debug_info15                           0x00000060   Data           0  ap_armprg.o(.debug_info)
    C$debug_frame895                         0x00000094   Data           0  ap_packet.o(.debug_frame)
    C$debug_loc894                           0x00000098   Data           0  ap_packet.o(.debug_loc)
    C$debug_loc906                           0x000000cc   Data           0  ap_packet.o(.debug_loc)
    C$debug_frame901                         0x000000dc   Data           0  ap_packet.o(.debug_frame)
    C$debug_frame907                         0x00000118   Data           0  ap_packet.o(.debug_frame)
    C$debug_pubnames16                       0x00000128   Data           0  ap_armprg.o(.debug_pubnames)
    C$debug_loc912                           0x00000148   Data           0  ap_packet.o(.debug_loc)
    C$debug_frame913                         0x00000184   Data           0  ap_packet.o(.debug_frame)
    C$debug_loc918                           0x00000190   Data           0  ap_packet.o(.debug_loc)
    C$debug_frame919                         0x000001d0   Data           0  ap_packet.o(.debug_frame)
    C$debug_loc924                           0x000001d4   Data           0  ap_packet.o(.debug_loc)
    C$debug_frame925                         0x0000020c   Data           0  ap_packet.o(.debug_frame)
    C$debug_loc930                           0x00000244   Data           0  ap_packet.o(.debug_loc)
    C$debug_macinfo17                        0x00000248   Data           0  ap_armprg.o(.debug_macinfo)
    C$debug_frame931                         0x0000025c   Data           0  ap_packet.o(.debug_frame)
    C$debug_frame937                         0x000002b4   Data           0  ap_packet.o(.debug_frame)
    C$debug_loc936                           0x000002c8   Data           0  ap_packet.o(.debug_loc)
    C$debug_frame949                         0x0000031c   Data           0  ap_packet.o(.debug_frame)
    C$debug_frame955                         0x00000370   Data           0  ap_packet.o(.debug_frame)
    C$debug_loc948                           0x00000370   Data           0  ap_packet.o(.debug_loc)
    C$debug_frame961                         0x000003b8   Data           0  ap_packet.o(.debug_frame)
    C$debug_loc954                           0x00000400   Data           0  ap_packet.o(.debug_loc)
    C$debug_frame967                         0x00000410   Data           0  ap_packet.o(.debug_frame)
    C$debug_loc960                           0x00000434   Data           0  ap_packet.o(.debug_loc)
    C$debug_frame973                         0x0000045c   Data           0  ap_packet.o(.debug_frame)
    C$debug_frame979                         0x000004a8   Data           0  ap_packet.o(.debug_frame)
    C$debug_frame985                         0x000004f8   Data           0  ap_packet.o(.debug_frame)
    C$debug_frame991                         0x00000548   Data           0  ap_packet.o(.debug_frame)
    C$debug_loc966                           0x00000558   Data           0  ap_packet.o(.debug_loc)
    C$debug_frame997                         0x00000594   Data           0  ap_packet.o(.debug_frame)
    C$debug_frame1003                        0x000005dc   Data           0  ap_packet.o(.debug_frame)
    C$debug_frame1009                        0x00000624   Data           0  ap_packet.o(.debug_frame)
    C$debug_loc972                           0x0000062c   Data           0  ap_packet.o(.debug_loc)
    C$debug_loc978                           0x00000660   Data           0  ap_packet.o(.debug_loc)
    C$debug_frame1015                        0x0000066c   Data           0  ap_packet.o(.debug_frame)
    C$debug_pubnames742                      0x000006b0   Data           0  ap_packet.o(.debug_pubnames)
    C$debug_frame1021                        0x000006b4   Data           0  ap_packet.o(.debug_frame)
    C$debug_pubnames748                      0x000006d4   Data           0  ap_packet.o(.debug_pubnames)
    C$debug_frame1027                        0x000006fc   Data           0  ap_packet.o(.debug_frame)
    C$debug_pubnames754                      0x00000704   Data           0  ap_packet.o(.debug_pubnames)
    C$debug_pubnames760                      0x0000072c   Data           0  ap_packet.o(.debug_pubnames)
    C$debug_frame1033                        0x00000744   Data           0  ap_packet.o(.debug_frame)
    C$debug_loc984                           0x00000754   Data           0  ap_packet.o(.debug_loc)
    C$debug_pubnames766                      0x00000754   Data           0  ap_packet.o(.debug_pubnames)
    C$debug_pubnames772                      0x00000774   Data           0  ap_packet.o(.debug_pubnames)
    C$debug_pubnames778                      0x0000079c   Data           0  ap_packet.o(.debug_pubnames)
    C$debug_frame1039                        0x000007a4   Data           0  ap_packet.o(.debug_frame)
    C$debug_pubnames784                      0x000007cc   Data           0  ap_packet.o(.debug_pubnames)
    C$debug_pubnames796                      0x00000800   Data           0  ap_packet.o(.debug_pubnames)
    C$debug_pubnames802                      0x00000828   Data           0  ap_packet.o(.debug_pubnames)
    C$debug_loc990                           0x00000848   Data           0  ap_packet.o(.debug_loc)
    C$debug_pubnames808                      0x00000850   Data           0  ap_packet.o(.debug_pubnames)
    C$debug_pubnames814                      0x00000874   Data           0  ap_packet.o(.debug_pubnames)
    C$debug_pubnames820                      0x000008a0   Data           0  ap_packet.o(.debug_pubnames)
    C$debug_loc996                           0x000008c0   Data           0  ap_packet.o(.debug_loc)
    C$debug_pubnames826                      0x000008c4   Data           0  ap_packet.o(.debug_pubnames)
    C$debug_pubnames832                      0x000008f0   Data           0  ap_packet.o(.debug_pubnames)
    C$debug_loc1002                          0x000008f4   Data           0  ap_packet.o(.debug_loc)
    C$debug_pubnames838                      0x0000091c   Data           0  ap_packet.o(.debug_pubnames)
    C$debug_loc1008                          0x00000928   Data           0  ap_packet.o(.debug_loc)
    C$debug_pubnames844                      0x00000940   Data           0  ap_packet.o(.debug_pubnames)
    C$debug_loc1014                          0x0000095c   Data           0  ap_packet.o(.debug_loc)
    C$debug_pubnames850                      0x00000968   Data           0  ap_packet.o(.debug_pubnames)
    C$debug_pubnames856                      0x0000098c   Data           0  ap_packet.o(.debug_pubnames)
    C$debug_loc1020                          0x00000990   Data           0  ap_packet.o(.debug_loc)
    C$debug_pubnames862                      0x000009b0   Data           0  ap_packet.o(.debug_pubnames)
    C$debug_loc1026                          0x000009c4   Data           0  ap_packet.o(.debug_loc)
    C$debug_pubnames868                      0x000009dc   Data           0  ap_packet.o(.debug_pubnames)
    C$debug_loc1032                          0x000009f8   Data           0  ap_packet.o(.debug_loc)
    C$debug_pubnames874                      0x00000a04   Data           0  ap_packet.o(.debug_pubnames)
    C$debug_pubnames880                      0x00000a2c   Data           0  ap_packet.o(.debug_pubnames)
    C$debug_pubnames886                      0x00000a54   Data           0  ap_packet.o(.debug_pubnames)
    C$debug_pubnames892                      0x00000a78   Data           0  ap_packet.o(.debug_pubnames)
    C$debug_loc1038                          0x00000a98   Data           0  ap_packet.o(.debug_loc)
    C$debug_pubnames898                      0x00000a9c   Data           0  ap_packet.o(.debug_pubnames)
    C$debug_pubnames904                      0x00000acc   Data           0  ap_packet.o(.debug_pubnames)
    C$debug_info741                          0x00000adc   Data           0  ap_packet.o(.debug_info)
    C$debug_pubnames910                      0x00000af4   Data           0  ap_packet.o(.debug_pubnames)
    C$debug_pubnames916                      0x00000b1c   Data           0  ap_packet.o(.debug_pubnames)
    C$debug_pubnames922                      0x00000b3c   Data           0  ap_packet.o(.debug_pubnames)
    C$debug_info747                          0x00000b48   Data           0  ap_packet.o(.debug_info)
    C$debug_pubnames928                      0x00000b64   Data           0  ap_packet.o(.debug_pubnames)
    C$debug_pubnames934                      0x00000b94   Data           0  ap_packet.o(.debug_pubnames)
    C$debug_info753                          0x00000bb8   Data           0  ap_packet.o(.debug_info)
    C$debug_pubnames946                      0x00000bc8   Data           0  ap_packet.o(.debug_pubnames)
    C$debug_pubnames952                      0x00000bf0   Data           0  ap_packet.o(.debug_pubnames)
    C$debug_macinfo233                       0x00000bf8   Data           0  ap_armprg.o(.debug_macinfo)
    C$debug_pubnames958                      0x00000c18   Data           0  ap_packet.o(.debug_pubnames)
    C$debug_pubnames964                      0x00000c3c   Data           0  ap_packet.o(.debug_pubnames)
    C$debug_info759                          0x00000c44   Data           0  ap_packet.o(.debug_info)
    C$debug_pubnames970                      0x00000c68   Data           0  ap_packet.o(.debug_pubnames)
    C$debug_pubnames976                      0x00000c8c   Data           0  ap_packet.o(.debug_pubnames)
    C$debug_pubnames982                      0x00000cb8   Data           0  ap_packet.o(.debug_pubnames)
    C$debug_info231                          0x00000cd0   Data           0  ap_packet.o(.debug_info)
    C$debug_pubnames988                      0x00000ce4   Data           0  ap_packet.o(.debug_pubnames)
    C$debug_pubnames994                      0x00000d08   Data           0  ap_packet.o(.debug_pubnames)
    C$debug_pubnames1000                     0x00000d30   Data           0  ap_packet.o(.debug_pubnames)
    C$debug_pubnames1006                     0x00000d54   Data           0  ap_packet.o(.debug_pubnames)
    C$debug_pubnames1012                     0x00000d78   Data           0  ap_packet.o(.debug_pubnames)
    C$debug_macinfo251                       0x00000d98   Data           0  ap_armprg.o(.debug_macinfo)
    C$debug_pubnames1018                     0x00000da4   Data           0  ap_packet.o(.debug_pubnames)
    C$debug_macinfo5                         0x00000dac   Data           0  ap_packet.o(.debug_macinfo)
    C$debug_pubnames1024                     0x00000dcc   Data           0  ap_packet.o(.debug_pubnames)
    C$debug_pubnames1030                     0x00000df4   Data           0  ap_packet.o(.debug_pubnames)
    C$debug_pubnames4                        0x00000e1c   Data           0  ap_packet.o(.debug_pubnames)
    C$debug_pubnames1036                     0x00000f90   Data           0  ap_packet.o(.debug_pubnames)
    C$debug_pubnames232                      0x00000fb4   Data           0  ap_packet.o(.debug_pubnames)
    C$debug_info3                            0x00001200   Data           0  ap_packet.o(.debug_info)
    C$debug_info765                          0x000014e8   Data           0  ap_packet.o(.debug_info)
    C$debug_info771                          0x00001570   Data           0  ap_packet.o(.debug_info)
    C$debug_info777                          0x00001610   Data           0  ap_packet.o(.debug_info)
    C$debug_info783                          0x000016ac   Data           0  ap_packet.o(.debug_info)
    C$debug_info795                          0x00001770   Data           0  ap_packet.o(.debug_info)
    C$debug_info801                          0x0000181c   Data           0  ap_packet.o(.debug_info)
    C$debug_info807                          0x00001898   Data           0  ap_packet.o(.debug_info)
    C$debug_info813                          0x00001a48   Data           0  ap_packet.o(.debug_info)
    C$debug_info819                          0x00001b30   Data           0  ap_packet.o(.debug_info)
    C$debug_info825                          0x00001ba8   Data           0  ap_packet.o(.debug_info)
    C$debug_info831                          0x00001d14   Data           0  ap_packet.o(.debug_info)
    C$debug_info837                          0x00001e80   Data           0  ap_packet.o(.debug_info)
    C$debug_info843                          0x00001f14   Data           0  ap_packet.o(.debug_info)
    C$debug_info849                          0x00001f90   Data           0  ap_packet.o(.debug_info)
    C$debug_info855                          0x00002008   Data           0  ap_packet.o(.debug_info)
    C$debug_info861                          0x00002080   Data           0  ap_packet.o(.debug_info)
    C$debug_info867                          0x00002100   Data           0  ap_packet.o(.debug_info)
    C$debug_info873                          0x0000217c   Data           0  ap_packet.o(.debug_info)
    C$debug_info879                          0x000021f8   Data           0  ap_packet.o(.debug_info)
    C$debug_info885                          0x00002310   Data           0  ap_packet.o(.debug_info)
    C$debug_info891                          0x00002370   Data           0  ap_packet.o(.debug_info)
    C$debug_info897                          0x000023f4   Data           0  ap_packet.o(.debug_info)
    C$debug_info903                          0x00002478   Data           0  ap_packet.o(.debug_info)
    C$debug_info909                          0x00002538   Data           0  ap_packet.o(.debug_info)
    C$debug_info915                          0x000025b8   Data           0  ap_packet.o(.debug_info)
    C$debug_info921                          0x0000263c   Data           0  ap_packet.o(.debug_info)
    C$debug_info927                          0x000026c4   Data           0  ap_packet.o(.debug_info)
    C$debug_info933                          0x000027a0   Data           0  ap_packet.o(.debug_info)
    C$debug_line14                           0x000027c0   Data           0  ap_armprg.o(.debug_line)
    C$debug_line230                          0x00002820   Data           0  ap_armprg.o(.debug_line)
    C$debug_line248                          0x00002884   Data           0  ap_armprg.o(.debug_line)
    C$debug_info945                          0x000028b4   Data           0  ap_packet.o(.debug_info)
    C$debug_line890                          0x000028dc   Data           0  ap_packet.o(.debug_line)
    C$debug_line896                          0x00002944   Data           0  ap_packet.o(.debug_line)
    C$debug_info951                          0x00002948   Data           0  ap_packet.o(.debug_info)
    C$debug_line902                          0x0000299c   Data           0  ap_packet.o(.debug_line)
    C$debug_info957                          0x000029b8   Data           0  ap_packet.o(.debug_info)
    C$debug_line908                          0x00002a30   Data           0  ap_packet.o(.debug_line)
    C$debug_line914                          0x00002a74   Data           0  ap_packet.o(.debug_line)
    C$debug_line920                          0x00002ac0   Data           0  ap_packet.o(.debug_line)
    C$debug_info963                          0x00002b08   Data           0  ap_packet.o(.debug_info)
    C$debug_line926                          0x00002b0c   Data           0  ap_packet.o(.debug_line)
    C$debug_line932                          0x00002b98   Data           0  ap_packet.o(.debug_line)
    C$debug_info969                          0x00002be8   Data           0  ap_packet.o(.debug_info)
    C$debug_line944                          0x00002c34   Data           0  ap_packet.o(.debug_line)
    C$debug_info975                          0x00002c58   Data           0  ap_packet.o(.debug_info)
    C$debug_line950                          0x00002c90   Data           0  ap_packet.o(.debug_line)
    C$debug_line956                          0x00002cd4   Data           0  ap_packet.o(.debug_line)
    C$debug_info981                          0x00002d80   Data           0  ap_packet.o(.debug_info)
    C$debug_line962                          0x00002d9c   Data           0  ap_packet.o(.debug_line)
    C$debug_line968                          0x00002e10   Data           0  ap_packet.o(.debug_line)
    C$debug_line974                          0x00002e6c   Data           0  ap_packet.o(.debug_line)
    C$debug_info987                          0x00002ea8   Data           0  ap_packet.o(.debug_info)
    C$debug_line980                          0x00002f18   Data           0  ap_packet.o(.debug_line)
    C$debug_info993                          0x00002f3c   Data           0  ap_packet.o(.debug_info)
    C$debug_info999                          0x00002fac   Data           0  ap_packet.o(.debug_info)
    C$debug_line986                          0x00002fc4   Data           0  ap_packet.o(.debug_line)
    C$debug_info1005                         0x0000301c   Data           0  ap_packet.o(.debug_info)
    C$debug_line992                          0x00003028   Data           0  ap_packet.o(.debug_line)
    C$debug_line998                          0x00003074   Data           0  ap_packet.o(.debug_line)
    C$debug_info1011                         0x0000308c   Data           0  ap_packet.o(.debug_info)
    C$debug_line1004                         0x000030b8   Data           0  ap_packet.o(.debug_line)
    C$debug_info1017                         0x000030fc   Data           0  ap_packet.o(.debug_info)
    C$debug_line1010                         0x000030fc   Data           0  ap_packet.o(.debug_line)
    C$debug_line1016                         0x00003140   Data           0  ap_packet.o(.debug_line)
    C$debug_info1023                         0x0000316c   Data           0  ap_packet.o(.debug_info)
    C$debug_line1022                         0x00003184   Data           0  ap_packet.o(.debug_line)
    C$debug_line1028                         0x000031c8   Data           0  ap_packet.o(.debug_line)
    C$debug_info1029                         0x000031dc   Data           0  ap_packet.o(.debug_info)
    C$debug_line2                            0x00003264   Data           0  ap_packet.o(.debug_line)
    C$debug_info1035                         0x00003314   Data           0  ap_packet.o(.debug_info)
    C$debug_line1034                         0x000058fc   Data           0  ap_packet.o(.debug_line)
    .constdata$1                             0x080558d8   Data           0  ap_packet.o(.constdata)
    host_header@handle_hello_0               0x0805591f   Data           1  ap_packet.o(.constdata)
    target_header@handle_hello_1             0x08055940   Data           1  ap_packet.o(.constdata)
    .data$0                                  0x0805698c   Data           0  ap_packet.o(.data)
    need_hello                               0x0805698c   Data           1  ap_packet.o(.data)
    .bss$2                                   0x0805bc2c   Data           0  ap_packet.o(.bss)
    escape_state                             0x0805bc2c   Data           1  ap_packet.o(.bss)
    bytes_recd                               0x0805bc30   Data           4  ap_packet.o(.bss)
    ..\..\core\storage\flash\src\flash_msm.c 0x00000000   Number         0  flash_msm.o ABSOLUTE
    .data                                    0x08056a10   Data           0  flash_msm.o(.data)
    .bss                                     0x08075ec8   Data           0  flash_msm.o(.bss)
    i.flash_nor_geometry_init                0x08051bf8   ARM Code       0  flash_msm.o(i.flash_nor_geometry_init)
    i.flash_nor_validate_structure           0x08051f44   ARM Code       0  flash_msm.o(i.flash_nor_validate_structure)
    i.flash_msm_get_device_type              0x080519f8   ARM Code       0  flash_msm.o(i.flash_msm_get_device_type)
    .data                                    0x08056a28   Data           0  flash_msm.o(.data)
    .data                                    0x08056a1c   Data           0  flash_msm.o(.data)
    .data                                    0x08056a08   Data           0  flash_msm.o(.data)
    .bss                                     0x080760bc   Data           0  flash_msm.o(.bss)
    C$debug_abbrev0                          0x00000010   Data           0  ap_armprg.o(.debug_abbrev)
    C$debug_frame877                         0x000007ec   Data           0  flash_msm.o(.debug_frame)
    C$debug_frame883                         0x00000828   Data           0  flash_msm.o(.debug_frame)
    C$debug_frame889                         0x0000088c   Data           0  flash_msm.o(.debug_frame)
    C$debug_loc876                           0x00000ab8   Data           0  flash_msm.o(.debug_loc)
    C$debug_loc882                           0x00000ab8   Data           0  flash_msm.o(.debug_loc)
    C$debug_macinfo461                       0x00000bf8   Data           0  ap_armprg.o(.debug_macinfo)
    C$debug_loc888                           0x00000d8c   Data           0  flash_msm.o(.debug_loc)
    C$debug_macinfo815                       0x00000d98   Data           0  ap_armprg.o(.debug_macinfo)
    C$debug_macinfo5                         0x000012b0   Data           0  flash_msm.o(.debug_macinfo)
    C$debug_pubnames850                      0x0000144c   Data           0  flash_msm.o(.debug_pubnames)
    C$debug_pubnames856                      0x00001480   Data           0  flash_msm.o(.debug_pubnames)
    C$debug_pubnames862                      0x000014b0   Data           0  flash_msm.o(.debug_pubnames)
    C$debug_pubnames874                      0x000014e0   Data           0  flash_msm.o(.debug_pubnames)
    C$debug_pubnames880                      0x00001514   Data           0  flash_msm.o(.debug_pubnames)
    C$debug_macinfo17                        0x00001524   Data           0  flash_msm.o(.debug_macinfo)
    C$debug_pubnames4                        0x00001544   Data           0  flash_msm.o(.debug_pubnames)
    C$debug_pubnames886                      0x000015ac   Data           0  flash_msm.o(.debug_pubnames)
    C$debug_pubnames16                       0x000015dc   Data           0  flash_msm.o(.debug_pubnames)
    C$debug_pubnames232                      0x000016cc   Data           0  flash_msm.o(.debug_pubnames)
    C$debug_pubnames10                       0x000019bc   Data           0  flash_msm.o(.debug_pubnames)
    C$debug_pubnames370                      0x000019f4   Data           0  flash_msm.o(.debug_pubnames)
    C$debug_pubnames406                      0x00001ecc   Data           0  flash_msm.o(.debug_pubnames)
    C$debug_macinfo233                       0x00001ee0   Data           0  flash_msm.o(.debug_macinfo)
    C$debug_pubnames460                      0x000020a0   Data           0  flash_msm.o(.debug_pubnames)
    C$debug_macinfo11                        0x00002420   Data           0  flash_msm.o(.debug_macinfo)
    C$debug_macinfo371                       0x000024e4   Data           0  flash_msm.o(.debug_macinfo)
    C$debug_macinfo407                       0x0000257c   Data           0  flash_msm.o(.debug_macinfo)
    C$debug_line14                           0x000027c0   Data           0  ap_armprg.o(.debug_line)
    C$debug_line458                          0x00002820   Data           0  ap_armprg.o(.debug_line)
    C$debug_line812                          0x00002884   Data           0  ap_armprg.o(.debug_line)
    C$debug_info15                           0x0000338c   Data           0  flash_msm.o(.debug_info)
    C$debug_info231                          0x00003534   Data           0  flash_msm.o(.debug_info)
    C$debug_info9                            0x00003918   Data           0  flash_msm.o(.debug_info)
    C$debug_info369                          0x000042a0   Data           0  flash_msm.o(.debug_info)
    C$debug_info849                          0x000056e4   Data           0  flash_msm.o(.debug_info)
    C$debug_info855                          0x00005784   Data           0  flash_msm.o(.debug_info)
    C$debug_line872                          0x0000593c   Data           0  flash_msm.o(.debug_line)
    C$debug_line878                          0x00005998   Data           0  flash_msm.o(.debug_line)
    C$debug_info861                          0x00005a80   Data           0  flash_msm.o(.debug_info)
    C$debug_info873                          0x00005b14   Data           0  flash_msm.o(.debug_info)
    C$debug_line2                            0x00005b14   Data           0  flash_msm.o(.debug_line)
    C$debug_info879                          0x00005b98   Data           0  flash_msm.o(.debug_info)
    C$debug_info405                          0x00005f24   Data           0  flash_msm.o(.debug_info)
    C$debug_info3                            0x000062bc   Data           0  flash_msm.o(.debug_info)
    C$debug_info885                          0x000063e8   Data           0  flash_msm.o(.debug_info)
    C$debug_info459                          0x0000646c   Data           0  flash_msm.o(.debug_info)
    C$debug_line884                          0x000081c8   Data           0  flash_msm.o(.debug_line)
    C$debug_line230                          0x00008224   Data           0  flash_msm.o(.debug_line)
    C$debug_line8                            0x00008278   Data           0  flash_msm.o(.debug_line)
    C$debug_line368                          0x00008300   Data           0  flash_msm.o(.debug_line)
    C$debug_line404                          0x00008378   Data           0  flash_msm.o(.debug_line)
    .data$5                                  0x08056a08   Data           0  flash_msm.o(.data)
    .data$10                                 0x08056a10   Data           0  flash_msm.o(.data)
    .data$15                                 0x08056a1c   Data           0  flash_msm.o(.data)
    .data$25                                 0x08056a28   Data           0  flash_msm.o(.data)
    .bss$2                                   0x08075ec8   Data           0  flash_msm.o(.bss)
    .bss$32                                  0x080760bc   Data           0  flash_msm.o(.bss)
    ..\..\core\storage\flash\src\flash_common.c 0x00000000   Number         0  flash_common.o ABSOLUTE
    .bss                                     0x080760c0   Data           0  flash_common.o(.bss)
    i.flash_open                             0x08051f48   ARM Code       0  flash_common.o(i.flash_open)
    .constdata                               0x08055ad4   Data           0  flash_common.o(.constdata)
    i.flash_close                            0x0805116c   ARM Code       0  flash_common.o(i.flash_close)
    i.flash_release_device_structure         0x08052190   ARM Code       0  flash_common.o(i.flash_release_device_structure)
    C$debug_abbrev0                          0x00000010   Data           0  ap_armprg.o(.debug_abbrev)
    C$debug_frame889                         0x000008c8   Data           0  flash_common.o(.debug_frame)
    C$debug_frame895                         0x00000924   Data           0  flash_common.o(.debug_frame)
    C$debug_frame901                         0x0000096c   Data           0  flash_common.o(.debug_frame)
    C$debug_macinfo233                       0x00000bf8   Data           0  ap_armprg.o(.debug_macinfo)
    C$debug_macinfo713                       0x00000d98   Data           0  ap_armprg.o(.debug_macinfo)
    C$debug_loc888                           0x00000da0   Data           0  flash_common.o(.debug_loc)
    C$debug_loc894                           0x00000f34   Data           0  flash_common.o(.debug_loc)
    C$debug_loc900                           0x00000f7c   Data           0  flash_common.o(.debug_loc)
    C$debug_macinfo17                        0x00001524   Data           0  flash_msm.o(.debug_macinfo)
    C$debug_pubnames16                       0x000015dc   Data           0  flash_msm.o(.debug_pubnames)
    C$debug_pubnames748                      0x000016cc   Data           0  flash_msm.o(.debug_pubnames)
    C$debug_pubnames736                      0x000019bc   Data           0  flash_msm.o(.debug_pubnames)
    C$debug_pubnames760                      0x000019f4   Data           0  flash_msm.o(.debug_pubnames)
    C$debug_macinfo749                       0x00001ee0   Data           0  flash_msm.o(.debug_macinfo)
    C$debug_pubnames232                      0x000020a0   Data           0  flash_msm.o(.debug_pubnames)
    C$debug_macinfo737                       0x00002420   Data           0  flash_msm.o(.debug_macinfo)
    C$debug_macinfo761                       0x000024e4   Data           0  flash_msm.o(.debug_macinfo)
    C$debug_pubnames856                      0x00002538   Data           0  flash_common.o(.debug_pubnames)
    C$debug_pubnames862                      0x00002570   Data           0  flash_common.o(.debug_pubnames)
    C$debug_macinfo755                       0x0000257c   Data           0  flash_msm.o(.debug_macinfo)
    C$debug_pubnames868                      0x000025a8   Data           0  flash_common.o(.debug_pubnames)
    C$debug_pubnames874                      0x000025e0   Data           0  flash_common.o(.debug_pubnames)
    C$debug_pubnames880                      0x00002604   Data           0  flash_common.o(.debug_pubnames)
    C$debug_pubnames886                      0x00002628   Data           0  flash_common.o(.debug_pubnames)
    C$debug_pubnames892                      0x0000264c   Data           0  flash_common.o(.debug_pubnames)
    C$debug_pubnames4                        0x00002670   Data           0  flash_common.o(.debug_pubnames)
    C$debug_pubnames898                      0x00002708   Data           0  flash_common.o(.debug_pubnames)
    C$debug_pubnames754                      0x00002740   Data           0  flash_common.o(.debug_pubnames)
    C$debug_line14                           0x000027c0   Data           0  ap_armprg.o(.debug_line)
    C$debug_line230                          0x00002820   Data           0  ap_armprg.o(.debug_line)
    C$debug_line710                          0x00002884   Data           0  ap_armprg.o(.debug_line)
    C$debug_pubnames814                      0x00002914   Data           0  flash_common.o(.debug_pubnames)
    C$debug_macinfo5                         0x00002a18   Data           0  flash_common.o(.debug_macinfo)
    C$debug_macinfo815                       0x00002c88   Data           0  flash_common.o(.debug_macinfo)
    C$debug_info15                           0x0000338c   Data           0  flash_msm.o(.debug_info)
    C$debug_info747                          0x00003534   Data           0  flash_msm.o(.debug_info)
    C$debug_info735                          0x00003918   Data           0  flash_msm.o(.debug_info)
    C$debug_info759                          0x000042a0   Data           0  flash_msm.o(.debug_info)
    C$debug_info231                          0x0000646c   Data           0  flash_msm.o(.debug_info)
    C$debug_info855                          0x0000699c   Data           0  flash_common.o(.debug_info)
    C$debug_info861                          0x00006a48   Data           0  flash_common.o(.debug_info)
    C$debug_info867                          0x00006b28   Data           0  flash_common.o(.debug_info)
    C$debug_info873                          0x00006bec   Data           0  flash_common.o(.debug_info)
    C$debug_info3                            0x00006dfc   Data           0  flash_common.o(.debug_info)
    C$debug_info879                          0x00006f58   Data           0  flash_common.o(.debug_info)
    C$debug_info885                          0x00006ff4   Data           0  flash_common.o(.debug_info)
    C$debug_info891                          0x000072cc   Data           0  flash_common.o(.debug_info)
    C$debug_info897                          0x00007360   Data           0  flash_common.o(.debug_info)
    C$debug_info753                          0x00007440   Data           0  flash_common.o(.debug_info)
    C$debug_info813                          0x000077c4   Data           0  flash_common.o(.debug_info)
    C$debug_line746                          0x00008224   Data           0  flash_msm.o(.debug_line)
    C$debug_line734                          0x00008278   Data           0  flash_msm.o(.debug_line)
    C$debug_line758                          0x00008300   Data           0  flash_msm.o(.debug_line)
    C$debug_line752                          0x00008378   Data           0  flash_msm.o(.debug_line)
    C$debug_line884                          0x00008414   Data           0  flash_common.o(.debug_line)
    C$debug_line890                          0x00008514   Data           0  flash_common.o(.debug_line)
    C$debug_line2                            0x00008578   Data           0  flash_common.o(.debug_line)
    C$debug_line896                          0x0000ac0c   Data           0  flash_common.o(.debug_line)
    C$debug_line812                          0x0000ac98   Data           0  flash_common.o(.debug_line)
    flash_release_device_structure           0x08052190   ARM Code      96  flash_common.o(i.flash_release_device_structure)
    .constdata$1                             0x08055ad4   Data           0  flash_common.o(.constdata)
    .bss$2                                   0x080760c0   Data           0  flash_common.o(.bss)
    flash_device_clients_initialized         0x080760c0   Data           1  flash_common.o(.bss)
    flash_client_count                       0x080760c4   Data           4  flash_common.o(.bss)
    flash_open_cs                            0x080760c8   Data           4  flash_common.o(.bss)
    flash_device_clients                     0x080760cc   Data         468  flash_common.o(.bss)
    ..\..\core\storage\flash\src\flash_os_none.c 0x00000000   Number         0  flash_os_none.o ABSOLUTE
    i.rex_int_free                           0x080550b8   ARM Code       0  flash_os_none.o(i.rex_int_free)
    i.rex_int_lock                           0x080550c0   ARM Code       0  flash_os_none.o(i.rex_int_lock)
    C$debug_abbrev0                          0x00000010   Data           0  ap_armprg.o(.debug_abbrev)
    C$debug_frame835                         0x000009c4   Data           0  flash_os_none.o(.debug_frame)
    C$debug_frame841                         0x00000a00   Data           0  flash_os_none.o(.debug_frame)
    C$debug_macinfo251                       0x00000bf8   Data           0  ap_armprg.o(.debug_macinfo)
    C$debug_macinfo731                       0x00000d98   Data           0  ap_armprg.o(.debug_macinfo)
    C$debug_loc834                           0x00000ffc   Data           0  flash_os_none.o(.debug_loc)
    C$debug_loc840                           0x00001010   Data           0  flash_os_none.o(.debug_loc)
    C$debug_macinfo17                        0x00001524   Data           0  flash_msm.o(.debug_macinfo)
    C$debug_pubnames16                       0x000015dc   Data           0  flash_msm.o(.debug_pubnames)
    C$debug_pubnames232                      0x000016cc   Data           0  flash_msm.o(.debug_pubnames)
    C$debug_pubnames10                       0x000019bc   Data           0  flash_msm.o(.debug_pubnames)
    C$debug_macinfo233                       0x00001ee0   Data           0  flash_msm.o(.debug_macinfo)
    C$debug_pubnames250                      0x000020a0   Data           0  flash_msm.o(.debug_pubnames)
    C$debug_macinfo11                        0x00002420   Data           0  flash_msm.o(.debug_macinfo)
    C$debug_line14                           0x000027c0   Data           0  ap_armprg.o(.debug_line)
    C$debug_line248                          0x00002820   Data           0  ap_armprg.o(.debug_line)
    C$debug_line728                          0x00002884   Data           0  ap_armprg.o(.debug_line)
    C$debug_pubnames784                      0x00002cbc   Data           0  flash_os_none.o(.debug_pubnames)
    C$debug_pubnames790                      0x00002ce0   Data           0  flash_os_none.o(.debug_pubnames)
    C$debug_pubnames832                      0x00002d04   Data           0  flash_os_none.o(.debug_pubnames)
    C$debug_pubnames838                      0x00002d28   Data           0  flash_os_none.o(.debug_pubnames)
    C$debug_info15                           0x0000338c   Data           0  flash_msm.o(.debug_info)
    C$debug_info231                          0x00003534   Data           0  flash_msm.o(.debug_info)
    C$debug_info9                            0x00003918   Data           0  flash_msm.o(.debug_info)
    C$debug_info249                          0x0000646c   Data           0  flash_msm.o(.debug_info)
    C$debug_info783                          0x00007bb0   Data           0  flash_os_none.o(.debug_info)
    C$debug_info789                          0x00007c3c   Data           0  flash_os_none.o(.debug_info)
    C$debug_info831                          0x00007cc8   Data           0  flash_os_none.o(.debug_info)
    C$debug_info837                          0x00007d50   Data           0  flash_os_none.o(.debug_info)
    C$debug_line230                          0x00008224   Data           0  flash_msm.o(.debug_line)
    C$debug_line8                            0x00008278   Data           0  flash_msm.o(.debug_line)
    C$debug_line830                          0x0000ad18   Data           0  flash_os_none.o(.debug_line)
    C$debug_line836                          0x0000ad78   Data           0  flash_os_none.o(.debug_line)
    ..\..\core\storage\flash\src\flash_nor.c 0x00000000   Number         0  flash_nor.o ABSOLUTE
    i.flash_nor_device_probe                 0x08051a00   ARM Code       0  flash_nor.o(i.flash_nor_device_probe)
    i.fs_nor_device_start_erase_block        0x080525e0   ARM Code       0  flash_nor.o(i.fs_nor_device_start_erase_block)
    i.fs_nor_device_resume_erase             0x080525a0   ARM Code       0  flash_nor.o(i.fs_nor_device_resume_erase)
    i.fsi_nor_device_worded_read             0x08052780   ARM Code       0  flash_nor.o(i.fsi_nor_device_worded_read)
    .data                                    0x08056a48   Data           0  flash_nor.o(.data)
    i.fsi_ram_probe                          0x08052788   ARM Code       0  flash_nor.o(i.fsi_ram_probe)
    i.fs_nor_device_block_count              0x0805242c   ARM Code       0  flash_nor.o(i.fs_nor_device_block_count)
    i.fs_nor_device_write_page               0x080526d4   ARM Code       0  flash_nor.o(i.fs_nor_device_write_page)
    i.fs_nor_device_erase_block_status       0x0805244c   ARM Code       0  flash_nor.o(i.fs_nor_device_erase_block_status)
    i.fs_nor_device_get_write_style          0x080524a0   ARM Code       0  flash_nor.o(i.fs_nor_device_get_write_style)
    i.fs_nor_device_read_ptr                 0x0805255c   ARM Code       0  flash_nor.o(i.fs_nor_device_read_ptr)
    i.fs_nor_device_erase_block              0x08052440   ARM Code       0  flash_nor.o(i.fs_nor_device_erase_block)
    .bss                                     0x080762a0   Data           0  flash_nor.o(.bss)
    i.fs_nor_device_block_size               0x08052434   ARM Code       0  flash_nor.o(i.fs_nor_device_block_size)
    i.fs_nor_device_name                     0x08052544   ARM Code       0  flash_nor.o(i.fs_nor_device_name)
    i.fs_nor_device_write_partial_page       0x080526ec   ARM Code       0  flash_nor.o(i.fs_nor_device_write_partial_page)
    i.fs_nor_device_mark_block_bad           0x0805253c   ARM Code       0  flash_nor.o(i.fs_nor_device_mark_block_bad)
    i.fs_nor_device_bad_block_check          0x08052424   ARM Code       0  flash_nor.o(i.fs_nor_device_bad_block_check)
    i.fs_nor_device_is_page_erased           0x080524ac   ARM Code       0  flash_nor.o(i.fs_nor_device_is_page_erased)
    i.fs_nor_device_suspend_erase            0x08052688   ARM Code       0  flash_nor.o(i.fs_nor_device_suspend_erase)
    i.fs_nor_device_read_page                0x08052554   ARM Code       0  flash_nor.o(i.fs_nor_device_read_page)
    i.fs_nor_device_page_size                0x0805254c   ARM Code       0  flash_nor.o(i.fs_nor_device_page_size)
    i.flash_nor_get_partition_phy_limits     0x08051f14   ARM Code       0  flash_nor.o(i.flash_nor_get_partition_phy_limits)
    C$debug_abbrev0                          0x00000010   Data           0  ap_armprg.o(.debug_abbrev)
    C$debug_frame1129                        0x00000a3c   Data           0  flash_nor.o(.debug_frame)
    C$debug_frame1135                        0x00000a78   Data           0  flash_nor.o(.debug_frame)
    C$debug_frame1141                        0x00000ad0   Data           0  flash_nor.o(.debug_frame)
    C$debug_frame1147                        0x00000b20   Data           0  flash_nor.o(.debug_frame)
    C$debug_frame1153                        0x00000b68   Data           0  flash_nor.o(.debug_frame)
    C$debug_frame1159                        0x00000ba4   Data           0  flash_nor.o(.debug_frame)
    C$debug_frame1165                        0x00000bf0   Data           0  flash_nor.o(.debug_frame)
    C$debug_macinfo545                       0x00000bf8   Data           0  ap_armprg.o(.debug_macinfo)
    C$debug_frame1171                        0x00000c2c   Data           0  flash_nor.o(.debug_frame)
    C$debug_frame1177                        0x00000c68   Data           0  flash_nor.o(.debug_frame)
    C$debug_frame1183                        0x00000ca4   Data           0  flash_nor.o(.debug_frame)
    C$debug_frame1189                        0x00000ce0   Data           0  flash_nor.o(.debug_frame)
    C$debug_frame1195                        0x00000d1c   Data           0  flash_nor.o(.debug_frame)
    C$debug_frame1201                        0x00000d68   Data           0  flash_nor.o(.debug_frame)
    C$debug_macinfo899                       0x00000d98   Data           0  ap_armprg.o(.debug_macinfo)
    C$debug_frame1207                        0x00000db8   Data           0  flash_nor.o(.debug_frame)
    C$debug_frame1213                        0x00000e04   Data           0  flash_nor.o(.debug_frame)
    C$debug_frame1219                        0x00000e54   Data           0  flash_nor.o(.debug_frame)
    C$debug_frame1225                        0x00000e90   Data           0  flash_nor.o(.debug_frame)
    C$debug_frame1231                        0x00000ecc   Data           0  flash_nor.o(.debug_frame)
    C$debug_frame1237                        0x00000f08   Data           0  flash_nor.o(.debug_frame)
    C$debug_frame1243                        0x00000f44   Data           0  flash_nor.o(.debug_frame)
    C$debug_frame1249                        0x00000f80   Data           0  flash_nor.o(.debug_frame)
    C$debug_loc1128                          0x00001024   Data           0  flash_nor.o(.debug_loc)
    C$debug_loc1134                          0x0000107c   Data           0  flash_nor.o(.debug_loc)
    C$debug_loc1140                          0x00001218   Data           0  flash_nor.o(.debug_loc)
    C$debug_loc1146                          0x0000134c   Data           0  flash_nor.o(.debug_loc)
    C$debug_loc1152                          0x00001414   Data           0  flash_nor.o(.debug_loc)
    C$debug_loc1158                          0x0000146c   Data           0  flash_nor.o(.debug_loc)
    C$debug_macinfo17                        0x00001524   Data           0  flash_msm.o(.debug_macinfo)
    C$debug_loc1164                          0x000015b0   Data           0  flash_nor.o(.debug_loc)
    C$debug_pubnames16                       0x000015dc   Data           0  flash_msm.o(.debug_pubnames)
    C$debug_loc1170                          0x00001648   Data           0  flash_nor.o(.debug_loc)
    C$debug_loc1176                          0x0000165c   Data           0  flash_nor.o(.debug_loc)
    C$debug_loc1182                          0x00001698   Data           0  flash_nor.o(.debug_loc)
    C$debug_loc1188                          0x000016ac   Data           0  flash_nor.o(.debug_loc)
    C$debug_loc1194                          0x000016c0   Data           0  flash_nor.o(.debug_loc)
    C$debug_pubnames232                      0x000016cc   Data           0  flash_msm.o(.debug_pubnames)
    C$debug_loc1200                          0x000017c4   Data           0  flash_nor.o(.debug_loc)
    C$debug_loc1206                          0x00001868   Data           0  flash_nor.o(.debug_loc)
    C$debug_loc1212                          0x000018f4   Data           0  flash_nor.o(.debug_loc)
    C$debug_loc1218                          0x0000198c   Data           0  flash_nor.o(.debug_loc)
    C$debug_pubnames10                       0x000019bc   Data           0  flash_msm.o(.debug_pubnames)
    C$debug_loc1224                          0x000019c8   Data           0  flash_nor.o(.debug_loc)
    C$debug_pubnames256                      0x000019f4   Data           0  flash_msm.o(.debug_pubnames)
    C$debug_loc1230                          0x00001a04   Data           0  flash_nor.o(.debug_loc)
    C$debug_loc1236                          0x00001a2c   Data           0  flash_nor.o(.debug_loc)
    C$debug_loc1242                          0x00001a68   Data           0  flash_nor.o(.debug_loc)
    C$debug_loc1248                          0x00001aa4   Data           0  flash_nor.o(.debug_loc)
    C$debug_macinfo233                       0x00001ee0   Data           0  flash_msm.o(.debug_macinfo)
    C$debug_pubnames544                      0x000020a0   Data           0  flash_msm.o(.debug_pubnames)
    C$debug_macinfo11                        0x00002420   Data           0  flash_msm.o(.debug_macinfo)
    C$debug_macinfo257                       0x000024e4   Data           0  flash_msm.o(.debug_macinfo)
    C$debug_macinfo251                       0x0000257c   Data           0  flash_msm.o(.debug_macinfo)
    C$debug_pubnames250                      0x00002740   Data           0  flash_common.o(.debug_pubnames)
    C$debug_line14                           0x000027c0   Data           0  ap_armprg.o(.debug_line)
    C$debug_line542                          0x00002820   Data           0  ap_armprg.o(.debug_line)
    C$debug_line896                          0x00002884   Data           0  ap_armprg.o(.debug_line)
    C$debug_pubnames238                      0x00002914   Data           0  flash_common.o(.debug_pubnames)
    C$debug_macinfo239                       0x00002c88   Data           0  flash_common.o(.debug_macinfo)
    C$debug_macinfo5                         0x00002ce8   Data           0  flash_nor.o(.debug_macinfo)
    C$debug_pubnames994                      0x00002d4c   Data           0  flash_nor.o(.debug_pubnames)
    C$debug_pubnames1000                     0x00002d70   Data           0  flash_nor.o(.debug_pubnames)
    C$debug_pubnames1006                     0x00002da0   Data           0  flash_nor.o(.debug_pubnames)
    C$debug_pubnames1012                     0x00002dd8   Data           0  flash_nor.o(.debug_pubnames)
    C$debug_pubnames1018                     0x00002e08   Data           0  flash_nor.o(.debug_pubnames)
    C$debug_pubnames1024                     0x00002e3c   Data           0  flash_nor.o(.debug_pubnames)
    C$debug_pubnames1030                     0x00002e6c   Data           0  flash_nor.o(.debug_pubnames)
    C$debug_pubnames1036                     0x00002ea0   Data           0  flash_nor.o(.debug_pubnames)
    C$debug_pubnames1042                     0x00002ed0   Data           0  flash_nor.o(.debug_pubnames)
    C$debug_pubnames1048                     0x00002f04   Data           0  flash_nor.o(.debug_pubnames)
    C$debug_pubnames1054                     0x00002f34   Data           0  flash_nor.o(.debug_pubnames)
    C$debug_pubnames1060                     0x00002f68   Data           0  flash_nor.o(.debug_pubnames)
    C$debug_pubnames1066                     0x00002f9c   Data           0  flash_nor.o(.debug_pubnames)
    C$debug_pubnames1072                     0x00002fd4   Data           0  flash_nor.o(.debug_pubnames)
    C$debug_pubnames1078                     0x00003008   Data           0  flash_nor.o(.debug_pubnames)
    C$debug_pubnames1084                     0x0000303c   Data           0  flash_nor.o(.debug_pubnames)
    C$debug_pubnames1090                     0x00003074   Data           0  flash_nor.o(.debug_pubnames)
    C$debug_pubnames1096                     0x000030a0   Data           0  flash_nor.o(.debug_pubnames)
    C$debug_pubnames1102                     0x000030d0   Data           0  flash_nor.o(.debug_pubnames)
    C$debug_pubnames1108                     0x00003100   Data           0  flash_nor.o(.debug_pubnames)
    C$debug_pubnames1114                     0x00003130   Data           0  flash_nor.o(.debug_pubnames)
    C$debug_pubnames1120                     0x00003164   Data           0  flash_nor.o(.debug_pubnames)
    C$debug_pubnames1126                     0x000031a0   Data           0  flash_nor.o(.debug_pubnames)
    C$debug_pubnames1132                     0x000031c4   Data           0  flash_nor.o(.debug_pubnames)
    C$debug_pubnames1138                     0x000031f4   Data           0  flash_nor.o(.debug_pubnames)
    C$debug_pubnames1144                     0x0000322c   Data           0  flash_nor.o(.debug_pubnames)
    C$debug_pubnames1150                     0x0000325c   Data           0  flash_nor.o(.debug_pubnames)
    C$debug_pubnames1156                     0x0000328c   Data           0  flash_nor.o(.debug_pubnames)
    C$debug_pubnames1162                     0x000032c0   Data           0  flash_nor.o(.debug_pubnames)
    C$debug_pubnames1168                     0x000032f0   Data           0  flash_nor.o(.debug_pubnames)
    C$debug_pubnames1174                     0x00003324   Data           0  flash_nor.o(.debug_pubnames)
    C$debug_pubnames1180                     0x00003354   Data           0  flash_nor.o(.debug_pubnames)
    C$debug_pubnames1186                     0x00003388   Data           0  flash_nor.o(.debug_pubnames)
    C$debug_info15                           0x0000338c   Data           0  flash_msm.o(.debug_info)
    C$debug_pubnames1192                     0x000033bc   Data           0  flash_nor.o(.debug_pubnames)
    C$debug_pubnames1198                     0x000033f4   Data           0  flash_nor.o(.debug_pubnames)
    C$debug_pubnames1204                     0x00003428   Data           0  flash_nor.o(.debug_pubnames)
    C$debug_pubnames1210                     0x0000345c   Data           0  flash_nor.o(.debug_pubnames)
    C$debug_pubnames1216                     0x00003494   Data           0  flash_nor.o(.debug_pubnames)
    C$debug_pubnames1222                     0x000034c0   Data           0  flash_nor.o(.debug_pubnames)
    C$debug_pubnames1228                     0x000034f0   Data           0  flash_nor.o(.debug_pubnames)
    C$debug_pubnames1234                     0x00003520   Data           0  flash_nor.o(.debug_pubnames)
    C$debug_info231                          0x00003534   Data           0  flash_msm.o(.debug_info)
    C$debug_pubnames1240                     0x00003550   Data           0  flash_nor.o(.debug_pubnames)
    C$debug_pubnames4                        0x00003584   Data           0  flash_nor.o(.debug_pubnames)
    C$debug_pubnames1246                     0x0000362c   Data           0  flash_nor.o(.debug_pubnames)
    C$debug_info9                            0x00003918   Data           0  flash_msm.o(.debug_info)
    C$debug_info255                          0x000042a0   Data           0  flash_msm.o(.debug_info)
    C$debug_info543                          0x0000646c   Data           0  flash_msm.o(.debug_info)
    C$debug_info249                          0x00007440   Data           0  flash_common.o(.debug_info)
    C$debug_info237                          0x000077c4   Data           0  flash_common.o(.debug_info)
    C$debug_info993                          0x00007dd8   Data           0  flash_nor.o(.debug_info)
    C$debug_info3                            0x00007eb4   Data           0  flash_nor.o(.debug_info)
    C$debug_info999                          0x00008014   Data           0  flash_nor.o(.debug_info)
    C$debug_info1005                         0x000081f4   Data           0  flash_nor.o(.debug_info)
    C$debug_line230                          0x00008224   Data           0  flash_msm.o(.debug_line)
    C$debug_line8                            0x00008278   Data           0  flash_msm.o(.debug_line)
    C$debug_line254                          0x00008300   Data           0  flash_msm.o(.debug_line)
    C$debug_info1011                         0x00008344   Data           0  flash_nor.o(.debug_info)
    C$debug_line248                          0x00008378   Data           0  flash_msm.o(.debug_line)
    C$debug_info1017                         0x00008458   Data           0  flash_nor.o(.debug_info)
    C$debug_info1023                         0x0000850c   Data           0  flash_nor.o(.debug_info)
    C$debug_info1029                         0x00008604   Data           0  flash_nor.o(.debug_info)
    C$debug_info1035                         0x00008750   Data           0  flash_nor.o(.debug_info)
    C$debug_info1041                         0x00008848   Data           0  flash_nor.o(.debug_info)
    C$debug_info1047                         0x00008914   Data           0  flash_nor.o(.debug_info)
    C$debug_info1053                         0x00008a08   Data           0  flash_nor.o(.debug_info)
    C$debug_info1059                         0x00008ab8   Data           0  flash_nor.o(.debug_info)
    C$debug_info1065                         0x00008b68   Data           0  flash_nor.o(.debug_info)
    C$debug_info1071                         0x00008ca4   Data           0  flash_nor.o(.debug_info)
    C$debug_info1077                         0x00008d80   Data           0  flash_nor.o(.debug_info)
    C$debug_info1083                         0x00008e58   Data           0  flash_nor.o(.debug_info)
    C$debug_info1089                         0x00008f40   Data           0  flash_nor.o(.debug_info)
    C$debug_info1095                         0x00008fe8   Data           0  flash_nor.o(.debug_info)
    C$debug_info1101                         0x00009098   Data           0  flash_nor.o(.debug_info)
    C$debug_info1107                         0x00009148   Data           0  flash_nor.o(.debug_info)
    C$debug_info1113                         0x000091f8   Data           0  flash_nor.o(.debug_info)
    C$debug_info1119                         0x000092ac   Data           0  flash_nor.o(.debug_info)
    C$debug_info1125                         0x000093d4   Data           0  flash_nor.o(.debug_info)
    C$debug_info1131                         0x000094ac   Data           0  flash_nor.o(.debug_info)
    C$debug_info1137                         0x0000963c   Data           0  flash_nor.o(.debug_info)
    C$debug_info1143                         0x00009770   Data           0  flash_nor.o(.debug_info)
    C$debug_info1149                         0x0000983c   Data           0  flash_nor.o(.debug_info)
    C$debug_info1155                         0x00009918   Data           0  flash_nor.o(.debug_info)
    C$debug_info1161                         0x00009a78   Data           0  flash_nor.o(.debug_info)
    C$debug_info1167                         0x00009b68   Data           0  flash_nor.o(.debug_info)
    C$debug_info1173                         0x00009c00   Data           0  flash_nor.o(.debug_info)
    C$debug_info1179                         0x00009ce8   Data           0  flash_nor.o(.debug_info)
    C$debug_info1185                         0x00009d74   Data           0  flash_nor.o(.debug_info)
    C$debug_info1191                         0x00009e00   Data           0  flash_nor.o(.debug_info)
    C$debug_info1197                         0x00009f24   Data           0  flash_nor.o(.debug_info)
    C$debug_info1203                         0x00009ff8   Data           0  flash_nor.o(.debug_info)
    C$debug_info1209                         0x0000a0c0   Data           0  flash_nor.o(.debug_info)
    C$debug_info1215                         0x0000a1a0   Data           0  flash_nor.o(.debug_info)
    C$debug_info1221                         0x0000a244   Data           0  flash_nor.o(.debug_info)
    C$debug_info1227                         0x0000a2e8   Data           0  flash_nor.o(.debug_info)
    C$debug_info1233                         0x0000a388   Data           0  flash_nor.o(.debug_info)
    C$debug_info1239                         0x0000a42c   Data           0  flash_nor.o(.debug_info)
    C$debug_info1245                         0x0000a4d0   Data           0  flash_nor.o(.debug_info)
    C$debug_line236                          0x0000ac98   Data           0  flash_common.o(.debug_line)
    C$debug_line1124                         0x0000add8   Data           0  flash_nor.o(.debug_line)
    C$debug_line1130                         0x0000ae5c   Data           0  flash_nor.o(.debug_line)
    C$debug_line1136                         0x0000af6c   Data           0  flash_nor.o(.debug_line)
    C$debug_line1142                         0x0000afe8   Data           0  flash_nor.o(.debug_line)
    C$debug_line1148                         0x0000b048   Data           0  flash_nor.o(.debug_line)
    C$debug_line1154                         0x0000b0ac   Data           0  flash_nor.o(.debug_line)
    C$debug_line1160                         0x0000b170   Data           0  flash_nor.o(.debug_line)
    C$debug_line1166                         0x0000b1f0   Data           0  flash_nor.o(.debug_line)
    C$debug_line1172                         0x0000b250   Data           0  flash_nor.o(.debug_line)
    C$debug_line1178                         0x0000b2b0   Data           0  flash_nor.o(.debug_line)
    C$debug_line1184                         0x0000b30c   Data           0  flash_nor.o(.debug_line)
    C$debug_line1190                         0x0000b368   Data           0  flash_nor.o(.debug_line)
    C$debug_line1196                         0x0000b3f8   Data           0  flash_nor.o(.debug_line)
    C$debug_line1202                         0x0000b474   Data           0  flash_nor.o(.debug_line)
    C$debug_line1208                         0x0000b4e8   Data           0  flash_nor.o(.debug_line)
    C$debug_line1214                         0x0000b55c   Data           0  flash_nor.o(.debug_line)
    C$debug_line1220                         0x0000b5b8   Data           0  flash_nor.o(.debug_line)
    C$debug_line1226                         0x0000b614   Data           0  flash_nor.o(.debug_line)
    C$debug_line1232                         0x0000b670   Data           0  flash_nor.o(.debug_line)
    C$debug_line1238                         0x0000b6cc   Data           0  flash_nor.o(.debug_line)
    C$debug_line2                            0x0000b728   Data           0  flash_nor.o(.debug_line)
    C$debug_line1244                         0x0000dddc   Data           0  flash_nor.o(.debug_line)
    fs_nor_device_get_write_style            0x080524a0   ARM Code      12  flash_nor.o(i.fs_nor_device_get_write_style)
    .data$0                                  0x08056a48   Data           0  flash_nor.o(.data)
    .bss$2                                   0x080762a0   Data           0  flash_nor.o(.bss)
    flashi_erase_state                       0x080762a0   Data           1  flash_nor.o(.bss)
    flashi_erase_location                    0x080762a4   Data           4  flash_nor.o(.bss)
    ..\..\core\storage\flash\src\flash_ram.c 0x00000000   Number         0  flash_ram.o ABSOLUTE
    i.flash_read_cfi                         0x08052120   ARM Code       0  flash_ram.o(i.flash_read_cfi)
    i.flash_intel_copy_cfi_data              0x08051640   ARM Code       0  flash_ram.o(i.flash_intel_copy_cfi_data)
    i.flash_spansion_get_id_codes            0x080522c4   ARM Code       0  flash_ram.o(i.flash_spansion_get_id_codes)
    i.flash_samsung_get_id_codes             0x08052234   ARM Code       0  flash_ram.o(i.flash_samsung_get_id_codes)
    i.flash_samsung_copy_cfi_data            0x080521f8   ARM Code       0  flash_ram.o(i.flash_samsung_copy_cfi_data)
    .data                                    0x08056ad8   Data           0  flash_ram.o(.data)
    i.flash_spansion_copy_cfi_data           0x08052288   ARM Code       0  flash_ram.o(i.flash_spansion_copy_cfi_data)
    i.flash_peek_twice                       0x080520ec   ARM Code       0  flash_ram.o(i.flash_peek_twice)
    C$debug_abbrev0                          0x00000010   Data           0  ap_armprg.o(.debug_abbrev)
    C$debug_macinfo929                       0x00000bf8   Data           0  ap_armprg.o(.debug_macinfo)
    C$debug_macinfo965                       0x00000d98   Data           0  ap_armprg.o(.debug_macinfo)
    C$debug_frame1033                        0x00000fbc   Data           0  flash_ram.o(.debug_frame)
    C$debug_frame1039                        0x00001018   Data           0  flash_ram.o(.debug_frame)
    C$debug_frame1045                        0x00001068   Data           0  flash_ram.o(.debug_frame)
    C$debug_frame1063                        0x000010b8   Data           0  flash_ram.o(.debug_frame)
    C$debug_frame1069                        0x000010f4   Data           0  flash_ram.o(.debug_frame)
    C$debug_frame1075                        0x0000113c   Data           0  flash_ram.o(.debug_frame)
    C$debug_frame1081                        0x00001184   Data           0  flash_ram.o(.debug_frame)
    C$debug_macinfo23                        0x00001524   Data           0  flash_msm.o(.debug_macinfo)
    C$debug_pubnames22                       0x000015dc   Data           0  flash_msm.o(.debug_pubnames)
    C$debug_pubnames238                      0x000016cc   Data           0  flash_msm.o(.debug_pubnames)
    C$debug_pubnames16                       0x000019bc   Data           0  flash_msm.o(.debug_pubnames)
    C$debug_pubnames10                       0x000019f4   Data           0  flash_msm.o(.debug_pubnames)
    C$debug_loc1032                          0x00001b44   Data           0  flash_ram.o(.debug_loc)
    C$debug_loc1038                          0x00001bfc   Data           0  flash_ram.o(.debug_loc)
    C$debug_loc1044                          0x00001c58   Data           0  flash_ram.o(.debug_loc)
    C$debug_loc1062                          0x00001cb4   Data           0  flash_ram.o(.debug_loc)
    C$debug_loc1068                          0x00001d24   Data           0  flash_ram.o(.debug_loc)
    C$debug_loc1074                          0x00001db4   Data           0  flash_ram.o(.debug_loc)
    C$debug_loc1080                          0x00001e44   Data           0  flash_ram.o(.debug_loc)
    C$debug_macinfo239                       0x00001ee0   Data           0  flash_msm.o(.debug_macinfo)
    C$debug_pubnames928                      0x000020a0   Data           0  flash_msm.o(.debug_pubnames)
    C$debug_macinfo17                        0x00002420   Data           0  flash_msm.o(.debug_macinfo)
    C$debug_macinfo11                        0x000024e4   Data           0  flash_msm.o(.debug_macinfo)
    C$debug_macinfo875                       0x0000257c   Data           0  flash_msm.o(.debug_macinfo)
    C$debug_pubnames874                      0x00002740   Data           0  flash_common.o(.debug_pubnames)
    C$debug_line20                           0x000027c0   Data           0  ap_armprg.o(.debug_line)
    C$debug_line926                          0x00002820   Data           0  ap_armprg.o(.debug_line)
    C$debug_line962                          0x00002884   Data           0  ap_armprg.o(.debug_line)
    C$debug_macinfo5                         0x00002f90   Data           0  flash_ram.o(.debug_macinfo)
    C$debug_info21                           0x0000338c   Data           0  flash_msm.o(.debug_info)
    C$debug_info237                          0x00003534   Data           0  flash_msm.o(.debug_info)
    C$debug_pubnames976                      0x00003668   Data           0  flash_ram.o(.debug_pubnames)
    C$debug_pubnames982                      0x00003690   Data           0  flash_ram.o(.debug_pubnames)
    C$debug_pubnames988                      0x000036c4   Data           0  flash_ram.o(.debug_pubnames)
    C$debug_pubnames1006                     0x000036f8   Data           0  flash_ram.o(.debug_pubnames)
    C$debug_pubnames1012                     0x00003728   Data           0  flash_ram.o(.debug_pubnames)
    C$debug_pubnames1018                     0x0000375c   Data           0  flash_ram.o(.debug_pubnames)
    C$debug_pubnames1024                     0x00003790   Data           0  flash_ram.o(.debug_pubnames)
    C$debug_pubnames1030                     0x000037b8   Data           0  flash_ram.o(.debug_pubnames)
    C$debug_pubnames1036                     0x000037e0   Data           0  flash_ram.o(.debug_pubnames)
    C$debug_pubnames1042                     0x00003814   Data           0  flash_ram.o(.debug_pubnames)
    C$debug_pubnames1060                     0x00003848   Data           0  flash_ram.o(.debug_pubnames)
    C$debug_pubnames1066                     0x00003878   Data           0  flash_ram.o(.debug_pubnames)
    C$debug_pubnames1072                     0x000038ac   Data           0  flash_ram.o(.debug_pubnames)
    C$debug_pubnames4                        0x000038e0   Data           0  flash_ram.o(.debug_pubnames)
    C$debug_pubnames1078                     0x0000390c   Data           0  flash_ram.o(.debug_pubnames)
    C$debug_info15                           0x00003918   Data           0  flash_msm.o(.debug_info)
    C$debug_info9                            0x000042a0   Data           0  flash_msm.o(.debug_info)
    C$debug_info927                          0x0000646c   Data           0  flash_msm.o(.debug_info)
    C$debug_info873                          0x00007440   Data           0  flash_common.o(.debug_info)
    C$debug_line236                          0x00008224   Data           0  flash_msm.o(.debug_line)
    C$debug_line14                           0x00008278   Data           0  flash_msm.o(.debug_line)
    C$debug_line8                            0x00008300   Data           0  flash_msm.o(.debug_line)
    C$debug_line872                          0x00008378   Data           0  flash_msm.o(.debug_line)
    C$debug_info975                          0x0000a5b4   Data           0  flash_ram.o(.debug_info)
    C$debug_info981                          0x0000a6b8   Data           0  flash_ram.o(.debug_info)
    C$debug_info987                          0x0000a760   Data           0  flash_ram.o(.debug_info)
    C$debug_info1005                         0x0000a808   Data           0  flash_ram.o(.debug_info)
    C$debug_info1011                         0x0000a8c8   Data           0  flash_ram.o(.debug_info)
    C$debug_info1017                         0x0000a98c   Data           0  flash_ram.o(.debug_info)
    C$debug_info1023                         0x0000aa50   Data           0  flash_ram.o(.debug_info)
    C$debug_info1029                         0x0000ab3c   Data           0  flash_ram.o(.debug_info)
    C$debug_info1035                         0x0000ac14   Data           0  flash_ram.o(.debug_info)
    C$debug_info1041                         0x0000aca4   Data           0  flash_ram.o(.debug_info)
    C$debug_info1059                         0x0000ad34   Data           0  flash_ram.o(.debug_info)
    C$debug_info1065                         0x0000ade0   Data           0  flash_ram.o(.debug_info)
    C$debug_info1071                         0x0000ae90   Data           0  flash_ram.o(.debug_info)
    C$debug_info3                            0x0000af40   Data           0  flash_ram.o(.debug_info)
    C$debug_info1077                         0x0000afd4   Data           0  flash_ram.o(.debug_info)
    C$debug_line1028                         0x0000de4c   Data           0  flash_ram.o(.debug_line)
    C$debug_line1034                         0x0000deb4   Data           0  flash_ram.o(.debug_line)
    C$debug_line1040                         0x0000df2c   Data           0  flash_ram.o(.debug_line)
    C$debug_line1058                         0x0000df9c   Data           0  flash_ram.o(.debug_line)
    C$debug_line1064                         0x0000e018   Data           0  flash_ram.o(.debug_line)
    C$debug_line1070                         0x0000e094   Data           0  flash_ram.o(.debug_line)
    C$debug_line2                            0x0000e110   Data           0  flash_ram.o(.debug_line)
    C$debug_line1076                         0x0001079c   Data           0  flash_ram.o(.debug_line)
    .data$0                                  0x08056ad8   Data           0  flash_ram.o(.data)
    ..\..\core\storage\flash\src\flash_nor_spansion.c 0x00000000   Number         0  flash_nor_spansion.o ABSOLUTE
    .constdata                               0x08055ae4   Data           0  flash_nor_spansion.o(.constdata)
    i.fsi_spansion_write                     0x080533b4   ARM Code       0  flash_nor_spansion.o(i.fsi_spansion_write)
    i.fsi_spansion_configure                 0x08053070   ARM Code       0  flash_nor_spansion.o(i.fsi_spansion_configure)
    .data                                    0x08056af0   Data           0  flash_nor_spansion.o(.data)
    i.fsi_spansion_erase_start               0x08053130   ARM Code       0  flash_nor_spansion.o(i.fsi_spansion_erase_start)
    .data                                    0x08056bcc   Data           0  flash_nor_spansion.o(.data)
    .bss                                     0x080762ac   Data           0  flash_nor_spansion.o(.bss)
    i.fsi_spansion_buffer_write              0x08052f20   ARM Code       0  flash_nor_spansion.o(i.fsi_spansion_buffer_write)
    i.fsi_spansion_erase_status              0x08053180   ARM Code       0  flash_nor_spansion.o(i.fsi_spansion_erase_status)
    i.spansion_probe                         0x08055154   ARM Code       0  flash_nor_spansion.o(i.spansion_probe)
    .data                                    0x08056ae4   Data           0  flash_nor_spansion.o(.data)
    i.fsi_spansion_resume                    0x08053208   ARM Code       0  flash_nor_spansion.o(i.fsi_spansion_resume)
    i.fsi_spansion_suspend                   0x08053284   ARM Code       0  flash_nor_spansion.o(i.fsi_spansion_suspend)
    .data                                    0x08056b18   Data           0  flash_nor_spansion.o(.data)
    C$debug_abbrev0                          0x00000010   Data           0  ap_armprg.o(.debug_abbrev)
    C$debug_info39                           0x00000060   Data           0  ap_armprg.o(.debug_info)
    C$debug_pubnames40                       0x00000128   Data           0  ap_armprg.o(.debug_pubnames)
    C$debug_macinfo41                        0x00000248   Data           0  ap_armprg.o(.debug_macinfo)
    C$debug_macinfo935                       0x00000bf8   Data           0  ap_armprg.o(.debug_macinfo)
    C$debug_info933                          0x00000cd0   Data           0  ap_packet.o(.debug_info)
    C$debug_macinfo971                       0x00000d98   Data           0  ap_armprg.o(.debug_macinfo)
    C$debug_pubnames934                      0x00000fb4   Data           0  ap_packet.o(.debug_pubnames)
    C$debug_frame1051                        0x000011e8   Data           0  flash_nor_spansion.o(.debug_frame)
    C$debug_frame1063                        0x00001234   Data           0  flash_nor_spansion.o(.debug_frame)
    C$debug_frame1069                        0x0000127c   Data           0  flash_nor_spansion.o(.debug_frame)
    C$debug_frame1075                        0x000012d0   Data           0  flash_nor_spansion.o(.debug_frame)
    C$debug_frame1081                        0x00001328   Data           0  flash_nor_spansion.o(.debug_frame)
    C$debug_frame1087                        0x00001374   Data           0  flash_nor_spansion.o(.debug_frame)
    C$debug_frame1093                        0x000013d0   Data           0  flash_nor_spansion.o(.debug_frame)
    C$debug_frame1099                        0x00001430   Data           0  flash_nor_spansion.o(.debug_frame)
    C$debug_macinfo257                       0x00001ee0   Data           0  flash_msm.o(.debug_macinfo)
    C$debug_loc1050                          0x00001f08   Data           0  flash_nor_spansion.o(.debug_loc)
    C$debug_loc1062                          0x00001fb8   Data           0  flash_nor_spansion.o(.debug_loc)
    C$debug_loc1068                          0x0000203c   Data           0  flash_nor_spansion.o(.debug_loc)
    C$debug_loc1074                          0x000020ac   Data           0  flash_nor_spansion.o(.debug_loc)
    C$debug_loc1080                          0x00002230   Data           0  flash_nor_spansion.o(.debug_loc)
    C$debug_loc1086                          0x000022f4   Data           0  flash_nor_spansion.o(.debug_loc)
    C$debug_loc1092                          0x000023f8   Data           0  flash_nor_spansion.o(.debug_loc)
    C$debug_macinfo35                        0x00002420   Data           0  flash_msm.o(.debug_macinfo)
    C$debug_macinfo29                        0x000024e4   Data           0  flash_msm.o(.debug_macinfo)
    C$debug_macinfo23                        0x0000257c   Data           0  flash_msm.o(.debug_macinfo)
    C$debug_loc1098                          0x000025a0   Data           0  flash_nor_spansion.o(.debug_loc)
    C$debug_line38                           0x000027c0   Data           0  ap_armprg.o(.debug_line)
    C$debug_line932                          0x00002820   Data           0  ap_armprg.o(.debug_line)
    C$debug_line968                          0x00002884   Data           0  ap_armprg.o(.debug_line)
    C$debug_macinfo5                         0x000031f8   Data           0  flash_nor_spansion.o(.debug_macinfo)
    C$debug_pubnames982                      0x00003934   Data           0  flash_nor_spansion.o(.debug_pubnames)
    C$debug_pubnames994                      0x0000395c   Data           0  flash_nor_spansion.o(.debug_pubnames)
    C$debug_pubnames1000                     0x0000398c   Data           0  flash_nor_spansion.o(.debug_pubnames)
    C$debug_pubnames1006                     0x000039bc   Data           0  flash_nor_spansion.o(.debug_pubnames)
    C$debug_pubnames1012                     0x000039e8   Data           0  flash_nor_spansion.o(.debug_pubnames)
    C$debug_pubnames1018                     0x00003a14   Data           0  flash_nor_spansion.o(.debug_pubnames)
    C$debug_pubnames1024                     0x00003a44   Data           0  flash_nor_spansion.o(.debug_pubnames)
    C$debug_pubnames1030                     0x00003a74   Data           0  flash_nor_spansion.o(.debug_pubnames)
    C$debug_pubnames1048                     0x00003aa0   Data           0  flash_nor_spansion.o(.debug_pubnames)
    C$debug_pubnames1060                     0x00003ac8   Data           0  flash_nor_spansion.o(.debug_pubnames)
    C$debug_pubnames1066                     0x00003af8   Data           0  flash_nor_spansion.o(.debug_pubnames)
    C$debug_pubnames1072                     0x00003b28   Data           0  flash_nor_spansion.o(.debug_pubnames)
    C$debug_pubnames1078                     0x00003b54   Data           0  flash_nor_spansion.o(.debug_pubnames)
    C$debug_pubnames1084                     0x00003b80   Data           0  flash_nor_spansion.o(.debug_pubnames)
    C$debug_pubnames1090                     0x00003bb0   Data           0  flash_nor_spansion.o(.debug_pubnames)
    C$debug_pubnames1096                     0x00003be0   Data           0  flash_nor_spansion.o(.debug_pubnames)
    C$debug_pubnames4                        0x00003c0c   Data           0  flash_nor_spansion.o(.debug_pubnames)
    C$debug_pubnames256                      0x00003cf8   Data           0  flash_nor_spansion.o(.debug_pubnames)
    C$debug_pubnames34                       0x00003fe8   Data           0  flash_nor_spansion.o(.debug_pubnames)
    C$debug_pubnames28                       0x00004020   Data           0  flash_nor_spansion.o(.debug_pubnames)
    C$debug_pubnames22                       0x000044f8   Data           0  flash_nor_spansion.o(.debug_pubnames)
    C$debug_line254                          0x00008224   Data           0  flash_msm.o(.debug_line)
    C$debug_line32                           0x00008278   Data           0  flash_msm.o(.debug_line)
    C$debug_line26                           0x00008300   Data           0  flash_msm.o(.debug_line)
    C$debug_line20                           0x00008378   Data           0  flash_msm.o(.debug_line)
    C$debug_info255                          0x0000b098   Data           0  flash_nor_spansion.o(.debug_info)
    C$debug_info33                           0x0000b47c   Data           0  flash_nor_spansion.o(.debug_info)
    C$debug_info27                           0x0000be04   Data           0  flash_nor_spansion.o(.debug_info)
    C$debug_info3                            0x0000d248   Data           0  flash_nor_spansion.o(.debug_info)
    C$debug_info981                          0x0000d3fc   Data           0  flash_nor_spansion.o(.debug_info)
    C$debug_info993                          0x0000d568   Data           0  flash_nor_spansion.o(.debug_info)
    C$debug_info999                          0x0000d638   Data           0  flash_nor_spansion.o(.debug_info)
    C$debug_info1005                         0x0000d768   Data           0  flash_nor_spansion.o(.debug_info)
    C$debug_info1011                         0x0000d95c   Data           0  flash_nor_spansion.o(.debug_info)
    C$debug_info1017                         0x0000dac4   Data           0  flash_nor_spansion.o(.debug_info)
    C$debug_info1023                         0x0000dc54   Data           0  flash_nor_spansion.o(.debug_info)
    C$debug_info1029                         0x0000de54   Data           0  flash_nor_spansion.o(.debug_info)
    C$debug_info1047                         0x0000dff4   Data           0  flash_nor_spansion.o(.debug_info)
    C$debug_info1059                         0x0000e138   Data           0  flash_nor_spansion.o(.debug_info)
    C$debug_info1065                         0x0000e1f0   Data           0  flash_nor_spansion.o(.debug_info)
    C$debug_info1071                         0x0000e344   Data           0  flash_nor_spansion.o(.debug_info)
    C$debug_info1077                         0x0000e524   Data           0  flash_nor_spansion.o(.debug_info)
    C$debug_info1083                         0x0000e658   Data           0  flash_nor_spansion.o(.debug_info)
    C$debug_info1089                         0x0000e7e4   Data           0  flash_nor_spansion.o(.debug_info)
    C$debug_info1095                         0x0000e9ec   Data           0  flash_nor_spansion.o(.debug_info)
    C$debug_info21                           0x0000eb68   Data           0  flash_nor_spansion.o(.debug_info)
    C$debug_line1046                         0x00010820   Data           0  flash_nor_spansion.o(.debug_line)
    C$debug_line1058                         0x000108c0   Data           0  flash_nor_spansion.o(.debug_line)
    C$debug_line1064                         0x00010940   Data           0  flash_nor_spansion.o(.debug_line)
    C$debug_line1070                         0x000109d8   Data           0  flash_nor_spansion.o(.debug_line)
    C$debug_line1076                         0x00010aa4   Data           0  flash_nor_spansion.o(.debug_line)
    C$debug_line1082                         0x00010b18   Data           0  flash_nor_spansion.o(.debug_line)
    C$debug_line1088                         0x00010ba4   Data           0  flash_nor_spansion.o(.debug_line)
    C$debug_line1094                         0x00010c78   Data           0  flash_nor_spansion.o(.debug_line)
    C$debug_line2                            0x00010d2c   Data           0  flash_nor_spansion.o(.debug_line)
    .constdata$31                            0x08055ae4   Data           0  flash_nor_spansion.o(.constdata)
    .data$0                                  0x08056ae4   Data           0  flash_nor_spansion.o(.data)
    amd_peek_code                            0x08056ae4   Data           4  flash_nor_spansion.o(.data)
    amd_poke_code                            0x08056ae8   Data           4  flash_nor_spansion.o(.data)
    .data$5                                  0x08056af0   Data           0  flash_nor_spansion.o(.data)
    .data$20                                 0x08056b18   Data           0  flash_nor_spansion.o(.data)
    .data$30                                 0x08056bcc   Data           0  flash_nor_spansion.o(.data)
    .bss$2                                   0x080762ac   Data           0  flash_nor_spansion.o(.bss)
    retry_count                              0x080762ac   Data           4  flash_nor_spansion.o(.bss)
    ..\..\core\storage\flash\src\flash_nor_samsung.c 0x00000000   Number         0  flash_nor_samsung.o ABSOLUTE
    .constdata                               0x08055b0a   Data           0  flash_nor_samsung.o(.constdata)
    .data                                    0x08056c4c   Data           0  flash_nor_samsung.o(.data)
    i.fsi_samsung_configure                  0x080528c8   ARM Code       0  flash_nor_samsung.o(i.fsi_samsung_configure)
    .data                                    0x08056c24   Data           0  flash_nor_samsung.o(.data)
    i.fsi_samsung_erase_start                0x080529bc   ARM Code       0  flash_nor_samsung.o(i.fsi_samsung_erase_start)
    .bss                                     0x080762b0   Data           0  flash_nor_samsung.o(.bss)
    i.fsi_samsung_resume                     0x08052c4c   ARM Code       0  flash_nor_samsung.o(i.fsi_samsung_resume)
    i.fsi_samsung_buffer_write               0x080527d8   ARM Code       0  flash_nor_samsung.o(i.fsi_samsung_buffer_write)
    i.fsi_samsung_unprotect_blocks           0x08052dbc   ARM Code       0  flash_nor_samsung.o(i.fsi_samsung_unprotect_blocks)
    .data                                    0x08056db4   Data           0  flash_nor_samsung.o(.data)
    .data                                    0x08056bf4   Data           0  flash_nor_samsung.o(.data)
    i.fsi_samsung_fast_byte_write            0x08052a94   ARM Code       0  flash_nor_samsung.o(i.fsi_samsung_fast_byte_write)
    i.samsung_nor_probe                      0x080550c8   ARM Code       0  flash_nor_samsung.o(i.samsung_nor_probe)
    i.fsi_samsung_suspend                    0x08052ca8   ARM Code       0  flash_nor_samsung.o(i.fsi_samsung_suspend)
    i.fsi_samsung_write                      0x08052e68   ARM Code       0  flash_nor_samsung.o(i.fsi_samsung_write)
    .data                                    0x08056d00   Data           0  flash_nor_samsung.o(.data)
    i.fsi_samsung_erase_status               0x08052a0c   ARM Code       0  flash_nor_samsung.o(i.fsi_samsung_erase_status)
    .data                                    0x08056ddc   Data           0  flash_nor_samsung.o(.data)
    .constdata                               0x08055af7   Data           0  flash_nor_samsung.o(.constdata)
    .data                                    0x08056bfc   Data           0  flash_nor_samsung.o(.data)
    C$debug_abbrev0                          0x00000010   Data           0  ap_armprg.o(.debug_abbrev)
    C$debug_macinfo923                       0x00000bf8   Data           0  ap_armprg.o(.debug_macinfo)
    C$debug_macinfo959                       0x00000d98   Data           0  ap_armprg.o(.debug_macinfo)
    C$debug_frame1039                        0x0000148c   Data           0  flash_nor_samsung.o(.debug_frame)
    C$debug_frame1045                        0x000014d8   Data           0  flash_nor_samsung.o(.debug_frame)
    C$debug_frame1051                        0x00001520   Data           0  flash_nor_samsung.o(.debug_frame)
    C$debug_macinfo29                        0x00001524   Data           0  flash_msm.o(.debug_macinfo)
    C$debug_frame1057                        0x00001574   Data           0  flash_nor_samsung.o(.debug_frame)
    C$debug_frame1063                        0x000015cc   Data           0  flash_nor_samsung.o(.debug_frame)
    C$debug_pubnames28                       0x000015dc   Data           0  flash_msm.o(.debug_pubnames)
    C$debug_frame1069                        0x00001608   Data           0  flash_nor_samsung.o(.debug_frame)
    C$debug_frame1075                        0x00001668   Data           0  flash_nor_samsung.o(.debug_frame)
    C$debug_frame1081                        0x000016c4   Data           0  flash_nor_samsung.o(.debug_frame)
    C$debug_pubnames244                      0x000016cc   Data           0  flash_msm.o(.debug_pubnames)
    C$debug_frame1087                        0x00001724   Data           0  flash_nor_samsung.o(.debug_frame)
    C$debug_frame1099                        0x00001780   Data           0  flash_nor_samsung.o(.debug_frame)
    C$debug_pubnames22                       0x000019bc   Data           0  flash_msm.o(.debug_pubnames)
    C$debug_pubnames16                       0x000019f4   Data           0  flash_msm.o(.debug_pubnames)
    C$debug_macinfo245                       0x00001ee0   Data           0  flash_msm.o(.debug_macinfo)
    C$debug_pubnames922                      0x000020a0   Data           0  flash_msm.o(.debug_pubnames)
    C$debug_macinfo23                        0x00002420   Data           0  flash_msm.o(.debug_macinfo)
    C$debug_macinfo17                        0x000024e4   Data           0  flash_msm.o(.debug_macinfo)
    C$debug_macinfo11                        0x0000257c   Data           0  flash_msm.o(.debug_macinfo)
    C$debug_loc1038                          0x00002708   Data           0  flash_nor_samsung.o(.debug_loc)
    C$debug_loc1044                          0x000027b8   Data           0  flash_nor_samsung.o(.debug_loc)
    C$debug_line26                           0x000027c0   Data           0  ap_armprg.o(.debug_line)
    C$debug_line920                          0x00002820   Data           0  ap_armprg.o(.debug_line)
    C$debug_loc1050                          0x0000283c   Data           0  flash_nor_samsung.o(.debug_loc)
    C$debug_line956                          0x00002884   Data           0  ap_armprg.o(.debug_line)
    C$debug_loc1056                          0x000028ac   Data           0  flash_nor_samsung.o(.debug_loc)
    C$debug_loc1062                          0x000029f8   Data           0  flash_nor_samsung.o(.debug_loc)
    C$debug_loc1068                          0x00002a64   Data           0  flash_nor_samsung.o(.debug_loc)
    C$debug_loc1074                          0x00002b04   Data           0  flash_nor_samsung.o(.debug_loc)
    C$debug_loc1080                          0x00002c28   Data           0  flash_nor_samsung.o(.debug_loc)
    C$debug_loc1086                          0x00002d70   Data           0  flash_nor_samsung.o(.debug_loc)
    C$debug_loc1098                          0x00002ed8   Data           0  flash_nor_samsung.o(.debug_loc)
    C$debug_info27                           0x0000338c   Data           0  flash_msm.o(.debug_info)
    C$debug_info243                          0x00003534   Data           0  flash_msm.o(.debug_info)
    C$debug_macinfo5                         0x000035e8   Data           0  flash_nor_samsung.o(.debug_macinfo)
    C$debug_info21                           0x00003918   Data           0  flash_msm.o(.debug_info)
    C$debug_info15                           0x000042a0   Data           0  flash_msm.o(.debug_info)
    C$debug_pubnames970                      0x000046cc   Data           0  flash_nor_samsung.o(.debug_pubnames)
    C$debug_pubnames976                      0x000046f4   Data           0  flash_nor_samsung.o(.debug_pubnames)
    C$debug_pubnames982                      0x00004724   Data           0  flash_nor_samsung.o(.debug_pubnames)
    C$debug_pubnames988                      0x00004754   Data           0  flash_nor_samsung.o(.debug_pubnames)
    C$debug_pubnames994                      0x00004780   Data           0  flash_nor_samsung.o(.debug_pubnames)
    C$debug_pubnames1000                     0x000047ac   Data           0  flash_nor_samsung.o(.debug_pubnames)
    C$debug_pubnames1006                     0x000047e0   Data           0  flash_nor_samsung.o(.debug_pubnames)
    C$debug_pubnames1012                     0x0000480c   Data           0  flash_nor_samsung.o(.debug_pubnames)
    C$debug_pubnames1018                     0x0000483c   Data           0  flash_nor_samsung.o(.debug_pubnames)
    C$debug_pubnames1030                     0x00004864   Data           0  flash_nor_samsung.o(.debug_pubnames)
    C$debug_pubnames1036                     0x00004898   Data           0  flash_nor_samsung.o(.debug_pubnames)
    C$debug_pubnames1042                     0x000048c0   Data           0  flash_nor_samsung.o(.debug_pubnames)
    C$debug_pubnames1048                     0x000048f0   Data           0  flash_nor_samsung.o(.debug_pubnames)
    C$debug_pubnames1054                     0x00004920   Data           0  flash_nor_samsung.o(.debug_pubnames)
    C$debug_pubnames1060                     0x0000494c   Data           0  flash_nor_samsung.o(.debug_pubnames)
    C$debug_pubnames1066                     0x00004978   Data           0  flash_nor_samsung.o(.debug_pubnames)
    C$debug_pubnames1072                     0x000049ac   Data           0  flash_nor_samsung.o(.debug_pubnames)
    C$debug_pubnames1078                     0x000049d8   Data           0  flash_nor_samsung.o(.debug_pubnames)
    C$debug_pubnames1084                     0x00004a08   Data           0  flash_nor_samsung.o(.debug_pubnames)
    C$debug_pubnames4                        0x00004a30   Data           0  flash_nor_samsung.o(.debug_pubnames)
    C$debug_pubnames1096                     0x00004b1c   Data           0  flash_nor_samsung.o(.debug_pubnames)
    C$debug_pubnames10                       0x00004b50   Data           0  flash_nor_samsung.o(.debug_pubnames)
    C$debug_info921                          0x0000646c   Data           0  flash_msm.o(.debug_info)
    C$debug_line242                          0x00008224   Data           0  flash_msm.o(.debug_line)
    C$debug_line20                           0x00008278   Data           0  flash_msm.o(.debug_line)
    C$debug_line14                           0x00008300   Data           0  flash_msm.o(.debug_line)
    C$debug_line8                            0x00008378   Data           0  flash_msm.o(.debug_line)
    C$debug_info3                            0x0000eefc   Data           0  flash_nor_samsung.o(.debug_info)
    C$debug_info969                          0x0000f0b8   Data           0  flash_nor_samsung.o(.debug_info)
    C$debug_info975                          0x0000f228   Data           0  flash_nor_samsung.o(.debug_info)
    C$debug_info981                          0x0000f2f8   Data           0  flash_nor_samsung.o(.debug_info)
    C$debug_info987                          0x0000f428   Data           0  flash_nor_samsung.o(.debug_info)
    C$debug_info993                          0x0000f5b0   Data           0  flash_nor_samsung.o(.debug_info)
    C$debug_info999                          0x0000f6ac   Data           0  flash_nor_samsung.o(.debug_info)
    C$debug_info1005                         0x0000f7b0   Data           0  flash_nor_samsung.o(.debug_info)
    C$debug_info1011                         0x0000f950   Data           0  flash_nor_samsung.o(.debug_info)
    C$debug_info1017                         0x0000fad0   Data           0  flash_nor_samsung.o(.debug_info)
    C$debug_info1029                         0x0000fc6c   Data           0  flash_nor_samsung.o(.debug_info)
    C$debug_info1035                         0x0000fe58   Data           0  flash_nor_samsung.o(.debug_info)
    C$debug_info1041                         0x0000ff9c   Data           0  flash_nor_samsung.o(.debug_info)
    C$debug_info1047                         0x00010054   Data           0  flash_nor_samsung.o(.debug_info)
    C$debug_info1053                         0x000101a8   Data           0  flash_nor_samsung.o(.debug_info)
    C$debug_info1059                         0x00010348   Data           0  flash_nor_samsung.o(.debug_info)
    C$debug_info1065                         0x0001043c   Data           0  flash_nor_samsung.o(.debug_info)
    C$debug_info1071                         0x00010548   Data           0  flash_nor_samsung.o(.debug_info)
    C$debug_info1077                         0x000106f8   Data           0  flash_nor_samsung.o(.debug_info)
    C$debug_info1083                         0x00010880   Data           0  flash_nor_samsung.o(.debug_info)
    C$debug_info1095                         0x000109fc   Data           0  flash_nor_samsung.o(.debug_info)
    C$debug_info9                            0x00010c4c   Data           0  flash_nor_samsung.o(.debug_info)
    C$debug_line1034                         0x000133c0   Data           0  flash_nor_samsung.o(.debug_line)
    C$debug_line1040                         0x0001345c   Data           0  flash_nor_samsung.o(.debug_line)
    C$debug_line1046                         0x000134dc   Data           0  flash_nor_samsung.o(.debug_line)
    C$debug_line1052                         0x00013570   Data           0  flash_nor_samsung.o(.debug_line)
    C$debug_line1058                         0x00013630   Data           0  flash_nor_samsung.o(.debug_line)
    C$debug_line1064                         0x0001369c   Data           0  flash_nor_samsung.o(.debug_line)
    C$debug_line1070                         0x00013744   Data           0  flash_nor_samsung.o(.debug_line)
    C$debug_line1076                         0x000137e8   Data           0  flash_nor_samsung.o(.debug_line)
    C$debug_line1082                         0x000138bc   Data           0  flash_nor_samsung.o(.debug_line)
    C$debug_line2                            0x00013970   Data           0  flash_nor_samsung.o(.debug_line)
    C$debug_line1094                         0x00015ff8   Data           0  flash_nor_samsung.o(.debug_line)
    .constdata$31                            0x08055af7   Data           0  flash_nor_samsung.o(.constdata)
    .constdata$41                            0x08055b0a   Data           0  flash_nor_samsung.o(.constdata)
    .data$0                                  0x08056bf4   Data           0  flash_nor_samsung.o(.data)
    fsi_peek_code                            0x08056bf4   Data           4  flash_nor_samsung.o(.data)
    wait_count                               0x08056bf8   Data           4  flash_nor_samsung.o(.data)
    .data$5                                  0x08056bfc   Data           0  flash_nor_samsung.o(.data)
    .data$10                                 0x08056c24   Data           0  flash_nor_samsung.o(.data)
    .data$15                                 0x08056c4c   Data           0  flash_nor_samsung.o(.data)
    .data$25                                 0x08056d00   Data           0  flash_nor_samsung.o(.data)
    .data$30                                 0x08056db4   Data           0  flash_nor_samsung.o(.data)
    .data$40                                 0x08056ddc   Data           0  flash_nor_samsung.o(.data)
    .bss$2                                   0x080762b0   Data           0  flash_nor_samsung.o(.bss)
    retry_count                              0x080762b0   Data           4  flash_nor_samsung.o(.bss)
    erase_verify_buf                         0x080762b4   Data         128  flash_nor_samsung.o(.bss)
    ..\..\core\storage\flash\src\flash_nor_intel.c 0x00000000   Number         0  flash_nor_intel.o ABSOLUTE
    .data                                    0x08056e2c   Data           0  flash_nor_intel.o(.data)
    .data                                    0x08056f08   Data           0  flash_nor_intel.o(.data)
    .data                                    0x08056fe4   Data           0  flash_nor_intel.o(.data)
    .constdata                               0x08055b1d   Data           0  flash_nor_intel.o(.constdata)
    i.flash_intel_buffer_write               0x08051460   ARM Code       0  flash_nor_intel.o(i.flash_intel_buffer_write)
    .bss                                     0x08076334   Data           0  flash_nor_intel.o(.bss)
    i.flash_intel_resume                     0x08051784   ARM Code       0  flash_nor_intel.o(i.flash_intel_resume)
    .data                                    0x08056e04   Data           0  flash_nor_intel.o(.data)
    i.__flash_intel_check_ready_status       0x080507a8   ARM Code       0  flash_nor_intel.o(i.__flash_intel_check_ready_status)
    i.flash_intel_word_write                 0x080518ac   ARM Code       0  flash_nor_intel.o(i.flash_intel_word_write)
    .data                                    0x08056e54   Data           0  flash_nor_intel.o(.data)
    i.__flash_intel_partial_buffer_write     0x08050854   ARM Code       0  flash_nor_intel.o(i.__flash_intel_partial_buffer_write)
    .constdata                               0x08055b30   Data           0  flash_nor_intel.o(.constdata)
    i.flash_intel_erase_status               0x080516fc   ARM Code       0  flash_nor_intel.o(i.flash_intel_erase_status)
    i.flash_intel_configure                  0x08051528   ARM Code       0  flash_nor_intel.o(i.flash_intel_configure)
    i.__flash_intel_buffer_write             0x080505f8   ARM Code       0  flash_nor_intel.o(i.__flash_intel_buffer_write)
    i.__flash_intel_convert_to_hd_addr       0x0805082c   ARM Code       0  flash_nor_intel.o(i.__flash_intel_convert_to_hd_addr)
    i.flash_intel_suspend                    0x080517ec   ARM Code       0  flash_nor_intel.o(i.flash_intel_suspend)
    .data                                    0x08056fbc   Data           0  flash_nor_intel.o(.data)
    i.flash_intel_erase_start                0x08051674   ARM Code       0  flash_nor_intel.o(i.flash_intel_erase_start)
    i.intel_probe                            0x08054000   ARM Code       0  flash_nor_intel.o(i.intel_probe)
    C$debug_abbrev0                          0x00000010   Data           0  ap_armprg.o(.debug_abbrev)
    C$debug_macinfo953                       0x00000bf8   Data           0  ap_armprg.o(.debug_macinfo)
    C$debug_macinfo989                       0x00000d98   Data           0  ap_armprg.o(.debug_macinfo)
    C$debug_macinfo17                        0x00001524   Data           0  flash_msm.o(.debug_macinfo)
    C$debug_pubnames16                       0x000015dc   Data           0  flash_msm.o(.debug_pubnames)
    C$debug_pubnames232                      0x000016cc   Data           0  flash_msm.o(.debug_pubnames)
    C$debug_frame1093                        0x000017e0   Data           0  flash_nor_intel.o(.debug_frame)
    C$debug_frame1099                        0x00001834   Data           0  flash_nor_intel.o(.debug_frame)
    C$debug_frame1105                        0x00001894   Data           0  flash_nor_intel.o(.debug_frame)
    C$debug_frame1111                        0x000018f4   Data           0  flash_nor_intel.o(.debug_frame)
    C$debug_frame1117                        0x00001954   Data           0  flash_nor_intel.o(.debug_frame)
    C$debug_frame1123                        0x000019a0   Data           0  flash_nor_intel.o(.debug_frame)
    C$debug_pubnames10                       0x000019bc   Data           0  flash_msm.o(.debug_pubnames)
    C$debug_frame1129                        0x000019dc   Data           0  flash_nor_intel.o(.debug_frame)
    C$debug_pubnames256                      0x000019f4   Data           0  flash_msm.o(.debug_pubnames)
    C$debug_frame1135                        0x00001a28   Data           0  flash_nor_intel.o(.debug_frame)
    C$debug_frame1141                        0x00001a74   Data           0  flash_nor_intel.o(.debug_frame)
    C$debug_frame1147                        0x00001acc   Data           0  flash_nor_intel.o(.debug_frame)
    C$debug_frame1153                        0x00001b18   Data           0  flash_nor_intel.o(.debug_frame)
    C$debug_frame1159                        0x00001b64   Data           0  flash_nor_intel.o(.debug_frame)
    C$debug_macinfo233                       0x00001ee0   Data           0  flash_msm.o(.debug_macinfo)
    C$debug_pubnames952                      0x000020a0   Data           0  flash_msm.o(.debug_pubnames)
    C$debug_macinfo11                        0x00002420   Data           0  flash_msm.o(.debug_macinfo)
    C$debug_macinfo257                       0x000024e4   Data           0  flash_msm.o(.debug_macinfo)
    C$debug_macinfo251                       0x0000257c   Data           0  flash_msm.o(.debug_macinfo)
    C$debug_line14                           0x000027c0   Data           0  ap_armprg.o(.debug_line)
    C$debug_line950                          0x00002820   Data           0  ap_armprg.o(.debug_line)
    C$debug_line986                          0x00002884   Data           0  ap_armprg.o(.debug_line)
    C$debug_macinfo239                       0x00002c88   Data           0  flash_common.o(.debug_macinfo)
    C$debug_loc1092                          0x00003084   Data           0  flash_nor_intel.o(.debug_loc)
    C$debug_loc1098                          0x0000316c   Data           0  flash_nor_intel.o(.debug_loc)
    C$debug_info15                           0x0000338c   Data           0  flash_msm.o(.debug_info)
    C$debug_loc1104                          0x000033f4   Data           0  flash_nor_intel.o(.debug_loc)
    C$debug_info231                          0x00003534   Data           0  flash_msm.o(.debug_info)
    C$debug_loc1110                          0x000035ec   Data           0  flash_nor_intel.o(.debug_loc)
    C$debug_loc1116                          0x0000387c   Data           0  flash_nor_intel.o(.debug_loc)
    C$debug_loc1122                          0x00003914   Data           0  flash_nor_intel.o(.debug_loc)
    C$debug_info9                            0x00003918   Data           0  flash_msm.o(.debug_info)
    C$debug_macinfo5                         0x00003948   Data           0  flash_nor_intel.o(.debug_macinfo)
    C$debug_loc1128                          0x00003978   Data           0  flash_nor_intel.o(.debug_loc)
    C$debug_loc1134                          0x00003a58   Data           0  flash_nor_intel.o(.debug_loc)
    C$debug_loc1140                          0x00003af0   Data           0  flash_nor_intel.o(.debug_loc)
    C$debug_loc1146                          0x00003c3c   Data           0  flash_nor_intel.o(.debug_loc)
    C$debug_loc1152                          0x00003cf4   Data           0  flash_nor_intel.o(.debug_loc)
    C$debug_loc1158                          0x00003d58   Data           0  flash_nor_intel.o(.debug_loc)
    C$debug_loc1170                          0x00003ef0   Data           0  flash_nor_intel.o(.debug_loc)
    C$debug_info255                          0x000042a0   Data           0  flash_msm.o(.debug_info)
    C$debug_pubnames1000                     0x00004d24   Data           0  flash_nor_intel.o(.debug_pubnames)
    C$debug_pubnames1006                     0x00004d5c   Data           0  flash_nor_intel.o(.debug_pubnames)
    C$debug_pubnames1012                     0x00004d90   Data           0  flash_nor_intel.o(.debug_pubnames)
    C$debug_pubnames1018                     0x00004dcc   Data           0  flash_nor_intel.o(.debug_pubnames)
    C$debug_pubnames1024                     0x00004dfc   Data           0  flash_nor_intel.o(.debug_pubnames)
    C$debug_pubnames1030                     0x00004e20   Data           0  flash_nor_intel.o(.debug_pubnames)
    C$debug_pubnames1036                     0x00004e58   Data           0  flash_nor_intel.o(.debug_pubnames)
    C$debug_pubnames1042                     0x00004e88   Data           0  flash_nor_intel.o(.debug_pubnames)
    C$debug_pubnames1048                     0x00004eb8   Data           0  flash_nor_intel.o(.debug_pubnames)
    C$debug_pubnames1054                     0x00004ee8   Data           0  flash_nor_intel.o(.debug_pubnames)
    C$debug_pubnames1060                     0x00004f14   Data           0  flash_nor_intel.o(.debug_pubnames)
    C$debug_pubnames1066                     0x00004f40   Data           0  flash_nor_intel.o(.debug_pubnames)
    C$debug_pubnames1078                     0x00004f6c   Data           0  flash_nor_intel.o(.debug_pubnames)
    C$debug_pubnames1090                     0x00004f9c   Data           0  flash_nor_intel.o(.debug_pubnames)
    C$debug_pubnames1096                     0x00004fd4   Data           0  flash_nor_intel.o(.debug_pubnames)
    C$debug_pubnames1102                     0x00005008   Data           0  flash_nor_intel.o(.debug_pubnames)
    C$debug_pubnames1108                     0x00005044   Data           0  flash_nor_intel.o(.debug_pubnames)
    C$debug_pubnames1114                     0x00005074   Data           0  flash_nor_intel.o(.debug_pubnames)
    C$debug_pubnames1120                     0x00005098   Data           0  flash_nor_intel.o(.debug_pubnames)
    C$debug_pubnames1126                     0x000050d0   Data           0  flash_nor_intel.o(.debug_pubnames)
    C$debug_pubnames1132                     0x00005100   Data           0  flash_nor_intel.o(.debug_pubnames)
    C$debug_pubnames1138                     0x00005130   Data           0  flash_nor_intel.o(.debug_pubnames)
    C$debug_pubnames1144                     0x00005160   Data           0  flash_nor_intel.o(.debug_pubnames)
    C$debug_pubnames1150                     0x0000518c   Data           0  flash_nor_intel.o(.debug_pubnames)
    C$debug_pubnames1156                     0x000051b8   Data           0  flash_nor_intel.o(.debug_pubnames)
    C$debug_pubnames1168                     0x000051e4   Data           0  flash_nor_intel.o(.debug_pubnames)
    C$debug_pubnames4                        0x00005214   Data           0  flash_nor_intel.o(.debug_pubnames)
    C$debug_pubnames250                      0x00005408   Data           0  flash_nor_intel.o(.debug_pubnames)
    C$debug_pubnames238                      0x000055dc   Data           0  flash_nor_intel.o(.debug_pubnames)
    C$debug_info951                          0x0000646c   Data           0  flash_msm.o(.debug_info)
    C$debug_line230                          0x00008224   Data           0  flash_msm.o(.debug_line)
    C$debug_line8                            0x00008278   Data           0  flash_msm.o(.debug_line)
    C$debug_line254                          0x00008300   Data           0  flash_msm.o(.debug_line)
    C$debug_line248                          0x00008378   Data           0  flash_msm.o(.debug_line)
    C$debug_line236                          0x0000ac98   Data           0  flash_common.o(.debug_line)
    C$debug_info999                          0x00010fe0   Data           0  flash_nor_intel.o(.debug_info)
    C$debug_info1005                         0x0001111c   Data           0  flash_nor_intel.o(.debug_info)
    C$debug_info1011                         0x0001138c   Data           0  flash_nor_intel.o(.debug_info)
    C$debug_info1017                         0x000115e8   Data           0  flash_nor_intel.o(.debug_info)
    C$debug_info3                            0x0001183c   Data           0  flash_nor_intel.o(.debug_info)
    C$debug_info1023                         0x00011b4c   Data           0  flash_nor_intel.o(.debug_info)
    C$debug_info1029                         0x00011c94   Data           0  flash_nor_intel.o(.debug_info)
    C$debug_info1035                         0x00011d88   Data           0  flash_nor_intel.o(.debug_info)
    C$debug_info1041                         0x00011ef8   Data           0  flash_nor_intel.o(.debug_info)
    C$debug_info1047                         0x00012038   Data           0  flash_nor_intel.o(.debug_info)
    C$debug_info1053                         0x00012214   Data           0  flash_nor_intel.o(.debug_info)
    C$debug_info1059                         0x00012370   Data           0  flash_nor_intel.o(.debug_info)
    C$debug_info1065                         0x0001245c   Data           0  flash_nor_intel.o(.debug_info)
    C$debug_info1077                         0x00012624   Data           0  flash_nor_intel.o(.debug_info)
    C$debug_info1089                         0x00012738   Data           0  flash_nor_intel.o(.debug_info)
    C$debug_info1095                         0x00012868   Data           0  flash_nor_intel.o(.debug_info)
    C$debug_info1101                         0x00012aa0   Data           0  flash_nor_intel.o(.debug_info)
    C$debug_info1107                         0x00012cd0   Data           0  flash_nor_intel.o(.debug_info)
    C$debug_info1113                         0x00012f24   Data           0  flash_nor_intel.o(.debug_info)
    C$debug_info1119                         0x00013050   Data           0  flash_nor_intel.o(.debug_info)
    C$debug_info1125                         0x00013108   Data           0  flash_nor_intel.o(.debug_info)
    C$debug_info1131                         0x00013244   Data           0  flash_nor_intel.o(.debug_info)
    C$debug_info1137                         0x0001337c   Data           0  flash_nor_intel.o(.debug_info)
    C$debug_info1143                         0x000134f8   Data           0  flash_nor_intel.o(.debug_info)
    C$debug_info1149                         0x00013660   Data           0  flash_nor_intel.o(.debug_info)
    C$debug_info1155                         0x00013734   Data           0  flash_nor_intel.o(.debug_info)
    C$debug_info1167                         0x000138f0   Data           0  flash_nor_intel.o(.debug_info)
    C$debug_info249                          0x000139bc   Data           0  flash_nor_intel.o(.debug_info)
    C$debug_info237                          0x00013d54   Data           0  flash_nor_intel.o(.debug_info)
    C$debug_line1088                         0x00016110   Data           0  flash_nor_intel.o(.debug_line)
    C$debug_line1094                         0x00016194   Data           0  flash_nor_intel.o(.debug_line)
    C$debug_line1100                         0x00016288   Data           0  flash_nor_intel.o(.debug_line)
    C$debug_line1106                         0x00016348   Data           0  flash_nor_intel.o(.debug_line)
    C$debug_line1112                         0x0001641c   Data           0  flash_nor_intel.o(.debug_line)
    C$debug_line1118                         0x000164ac   Data           0  flash_nor_intel.o(.debug_line)
    C$debug_line1124                         0x0001651c   Data           0  flash_nor_intel.o(.debug_line)
    C$debug_line1130                         0x000165b0   Data           0  flash_nor_intel.o(.debug_line)
    C$debug_line1136                         0x0001664c   Data           0  flash_nor_intel.o(.debug_line)
    C$debug_line1142                         0x00016700   Data           0  flash_nor_intel.o(.debug_line)
    C$debug_line1148                         0x000167a8   Data           0  flash_nor_intel.o(.debug_line)
    C$debug_line1154                         0x00016828   Data           0  flash_nor_intel.o(.debug_line)
    C$debug_line1166                         0x000168f4   Data           0  flash_nor_intel.o(.debug_line)
    C$debug_line2                            0x0001695c   Data           0  flash_nor_intel.o(.debug_line)
    .constdata$56                            0x08055b1d   Data           0  flash_nor_intel.o(.constdata)
    .constdata$66                            0x08055b30   Data           0  flash_nor_intel.o(.constdata)
    .data$10                                 0x08056e04   Data           0  flash_nor_intel.o(.data)
    .data$15                                 0x08056e2c   Data           0  flash_nor_intel.o(.data)
    .data$20                                 0x08056e54   Data           0  flash_nor_intel.o(.data)
    .data$40                                 0x08056f08   Data           0  flash_nor_intel.o(.data)
    .data$55                                 0x08056fbc   Data           0  flash_nor_intel.o(.data)
    .data$65                                 0x08056fe4   Data           0  flash_nor_intel.o(.data)
    .bss$2                                   0x08076334   Data           0  flash_nor_intel.o(.bss)
    flash_m18_hd_enabled                     0x08076334   Data           1  flash_nor_intel.o(.bss)
    read_ptr_buf_index@flash_intel_hd_read_ptr_0 0x08076335   Data           1  flash_nor_intel.o(.bss)
    flash_word_pgrm_setup_cmd                0x08076336   Data           2  flash_nor_intel.o(.bss)
    flash_buf_prgm_setup_cmd                 0x08076338   Data           2  flash_nor_intel.o(.bss)
    flash_hd_a_half_seg_bsize                0x0807633a   Data           2  flash_nor_intel.o(.bss)
    flash_hd_b_half_seg_bsize                0x0807633c   Data           2  flash_nor_intel.o(.bss)
    flash_write_buf_bsize                    0x08076340   Data           4  flash_nor_intel.o(.bss)
    flash_base_addr                          0x08076344   Data           4  flash_nor_intel.o(.bss)
    flash_hd_read_buf                        0x08076348   Data        2048  flash_nor_intel.o(.bss)
    ..\..\core\storage\flash\src\flash_nor_utils.c 0x00000000   Number         0  flash_nor_utils.o ABSOLUTE
    i.flash_nor_find_size_for_block_addr     0x08051b9c   ARM Code       0  flash_nor_utils.o(i.flash_nor_find_size_for_block_addr)
    C$debug_abbrev0                          0x00000010   Data           0  ap_armprg.o(.debug_abbrev)
    C$debug_macinfo29                        0x00001524   Data           0  flash_msm.o(.debug_macinfo)
    C$debug_pubnames28                       0x000015dc   Data           0  flash_msm.o(.debug_pubnames)
    C$debug_pubnames244                      0x000016cc   Data           0  flash_msm.o(.debug_pubnames)
    C$debug_pubnames22                       0x000019bc   Data           0  flash_msm.o(.debug_pubnames)
    C$debug_pubnames16                       0x000019f4   Data           0  flash_msm.o(.debug_pubnames)
    C$debug_frame307                         0x00001bc4   Data           0  flash_nor_utils.o(.debug_frame)
    C$debug_macinfo245                       0x00001ee0   Data           0  flash_msm.o(.debug_macinfo)
    C$debug_macinfo23                        0x00002420   Data           0  flash_msm.o(.debug_macinfo)
    C$debug_macinfo17                        0x000024e4   Data           0  flash_msm.o(.debug_macinfo)
    C$debug_line26                           0x000027c0   Data           0  ap_armprg.o(.debug_line)
    C$debug_info27                           0x0000338c   Data           0  flash_msm.o(.debug_info)
    C$debug_info243                          0x00003534   Data           0  flash_msm.o(.debug_info)
    C$debug_info21                           0x00003918   Data           0  flash_msm.o(.debug_info)
    C$debug_loc306                           0x00003f88   Data           0  flash_nor_utils.o(.debug_loc)
    C$debug_info15                           0x000042a0   Data           0  flash_msm.o(.debug_info)
    C$debug_pubnames280                      0x00005984   Data           0  flash_nor_utils.o(.debug_pubnames)
    C$debug_pubnames304                      0x000059c0   Data           0  flash_nor_utils.o(.debug_pubnames)
    C$debug_line242                          0x00008224   Data           0  flash_msm.o(.debug_line)
    C$debug_line20                           0x00008278   Data           0  flash_msm.o(.debug_line)
    C$debug_line14                           0x00008300   Data           0  flash_msm.o(.debug_line)
    C$debug_info279                          0x00014140   Data           0  flash_nor_utils.o(.debug_info)
    C$debug_info303                          0x00014258   Data           0  flash_nor_utils.o(.debug_info)
    C$debug_line302                          0x00018ffc   Data           0  flash_nor_utils.o(.debug_line)
    ..\..\core\storage\flash\src\flash_partition.c 0x00000000   Number         0  flash_partition.o ABSOLUTE
    C$debug_abbrev0                          0x00000010   Data           0  ap_armprg.o(.debug_abbrev)
    C$debug_macinfo545                       0x00000bf8   Data           0  ap_armprg.o(.debug_macinfo)
    C$debug_macinfo899                       0x00000d98   Data           0  ap_armprg.o(.debug_macinfo)
    C$debug_macinfo11                        0x00001524   Data           0  flash_msm.o(.debug_macinfo)
    C$debug_pubnames10                       0x000015dc   Data           0  flash_msm.o(.debug_pubnames)
    C$debug_pubnames256                      0x000016cc   Data           0  flash_msm.o(.debug_pubnames)
    C$debug_pubnames244                      0x000019bc   Data           0  flash_msm.o(.debug_pubnames)
    C$debug_pubnames274                      0x000019f4   Data           0  flash_msm.o(.debug_pubnames)
    C$debug_macinfo257                       0x00001ee0   Data           0  flash_msm.o(.debug_macinfo)
    C$debug_pubnames544                      0x000020a0   Data           0  flash_msm.o(.debug_pubnames)
    C$debug_macinfo245                       0x00002420   Data           0  flash_msm.o(.debug_macinfo)
    C$debug_macinfo275                       0x000024e4   Data           0  flash_msm.o(.debug_macinfo)
    C$debug_macinfo311                       0x0000257c   Data           0  flash_msm.o(.debug_macinfo)
    C$debug_pubnames310                      0x00002740   Data           0  flash_common.o(.debug_pubnames)
    C$debug_line8                            0x000027c0   Data           0  ap_armprg.o(.debug_line)
    C$debug_line542                          0x00002820   Data           0  ap_armprg.o(.debug_line)
    C$debug_line896                          0x00002884   Data           0  ap_armprg.o(.debug_line)
    C$debug_info9                            0x0000338c   Data           0  flash_msm.o(.debug_info)
    C$debug_info255                          0x00003534   Data           0  flash_msm.o(.debug_info)
    C$debug_info243                          0x00003918   Data           0  flash_msm.o(.debug_info)
    C$debug_info273                          0x000042a0   Data           0  flash_msm.o(.debug_info)
    C$debug_info543                          0x0000646c   Data           0  flash_msm.o(.debug_info)
    C$debug_info309                          0x00007440   Data           0  flash_common.o(.debug_info)
    C$debug_line254                          0x00008224   Data           0  flash_msm.o(.debug_line)
    C$debug_line242                          0x00008278   Data           0  flash_msm.o(.debug_line)
    C$debug_line272                          0x00008300   Data           0  flash_msm.o(.debug_line)
    C$debug_line308                          0x00008378   Data           0  flash_msm.o(.debug_line)
    ..\..\core\storage\flash\src\flash_nor_partition.c 0x00000000   Number         0  flash_nor_partition.o ABSOLUTE
    C$debug_abbrev0                          0x00000010   Data           0  ap_armprg.o(.debug_abbrev)
    C$debug_macinfo11                        0x00001524   Data           0  flash_msm.o(.debug_macinfo)
    C$debug_pubnames10                       0x000015dc   Data           0  flash_msm.o(.debug_pubnames)
    C$debug_pubnames256                      0x000016cc   Data           0  flash_msm.o(.debug_pubnames)
    C$debug_pubnames244                      0x000019bc   Data           0  flash_msm.o(.debug_pubnames)
    C$debug_pubnames280                      0x000019f4   Data           0  flash_msm.o(.debug_pubnames)
    C$debug_macinfo257                       0x00001ee0   Data           0  flash_msm.o(.debug_macinfo)
    C$debug_macinfo245                       0x00002420   Data           0  flash_msm.o(.debug_macinfo)
    C$debug_macinfo281                       0x000024e4   Data           0  flash_msm.o(.debug_macinfo)
    C$debug_macinfo275                       0x0000257c   Data           0  flash_msm.o(.debug_macinfo)
    C$debug_pubnames274                      0x00002740   Data           0  flash_common.o(.debug_pubnames)
    C$debug_line8                            0x000027c0   Data           0  ap_armprg.o(.debug_line)
    C$debug_info9                            0x0000338c   Data           0  flash_msm.o(.debug_info)
    C$debug_info255                          0x00003534   Data           0  flash_msm.o(.debug_info)
    C$debug_info243                          0x00003918   Data           0  flash_msm.o(.debug_info)
    C$debug_info279                          0x000042a0   Data           0  flash_msm.o(.debug_info)
    C$debug_info273                          0x00007440   Data           0  flash_common.o(.debug_info)
    C$debug_line254                          0x00008224   Data           0  flash_msm.o(.debug_line)
    C$debug_line242                          0x00008278   Data           0  flash_msm.o(.debug_line)
    C$debug_line278                          0x00008300   Data           0  flash_msm.o(.debug_line)
    C$debug_line272                          0x00008378   Data           0  flash_msm.o(.debug_line)
    ap_uart.c                                0x00000000   Number         0  ap_uart.o ABSOLUTE
    i.uartdm_start_receiving_data            0x08055744   ARM Code       0  ap_uart.o(i.uartdm_start_receiving_data)
    .bss                                     0x08076b48   Data           0  ap_uart.o(.bss)
    i.uartdm_reset_receiver                  0x08055730   ARM Code       0  ap_uart.o(i.uartdm_reset_receiver)
    i.uartdm_drain                           0x08055428   ARM Code       0  ap_uart.o(i.uartdm_drain)
    i.process_packets_uart                   0x08054580   ARM Code       0  ap_uart.o(i.process_packets_uart)
    i.uartdm_receive_bytes                   0x080554ac   ARM Code       0  ap_uart.o(i.uartdm_receive_bytes)
    i.uartdm_init                            0x0805544c   ARM Code       0  ap_uart.o(i.uartdm_init)
    .data                                    0x0805700c   Data           0  ap_uart.o(.data)
    i.uart_packet_init                       0x080553b4   ARM Code       0  ap_uart.o(i.uart_packet_init)
    i.uartdm_active                          0x080553e0   ARM Code       0  ap_uart.o(i.uartdm_active)
    i.uart_get_data_from_device              0x08055374   ARM Code       0  ap_uart.o(i.uart_get_data_from_device)
    i.uartdm_transmit_byte                   0x08055764   ARM Code       0  ap_uart.o(i.uartdm_transmit_byte)
    i.do_uart_check                          0x08051158   ARM Code       0  ap_uart.o(i.do_uart_check)
    i.uartdm_init_local_receiver_status      0x08055484   ARM Code       0  ap_uart.o(i.uartdm_init_local_receiver_status)
    C$debug_abbrev0                          0x00000010   Data           0  ap_armprg.o(.debug_abbrev)
    C$debug_macinfo227                       0x00000bf8   Data           0  ap_armprg.o(.debug_macinfo)
    C$debug_macinfo11                        0x00001524   Data           0  flash_msm.o(.debug_macinfo)
    C$debug_pubnames10                       0x000015dc   Data           0  flash_msm.o(.debug_pubnames)
    C$debug_frame805                         0x00001c20   Data           0  ap_uart.o(.debug_frame)
    C$debug_frame811                         0x00001c5c   Data           0  ap_uart.o(.debug_frame)
    C$debug_frame817                         0x00001c98   Data           0  ap_uart.o(.debug_frame)
    C$debug_frame823                         0x00001cd4   Data           0  ap_uart.o(.debug_frame)
    C$debug_frame835                         0x00001d1c   Data           0  ap_uart.o(.debug_frame)
    C$debug_frame847                         0x00001d58   Data           0  ap_uart.o(.debug_frame)
    C$debug_frame853                         0x00001dbc   Data           0  ap_uart.o(.debug_frame)
    C$debug_frame859                         0x00001df8   Data           0  ap_uart.o(.debug_frame)
    C$debug_frame865                         0x00001e40   Data           0  ap_uart.o(.debug_frame)
    C$debug_frame871                         0x00001e98   Data           0  ap_uart.o(.debug_frame)
    C$debug_frame877                         0x00001ed4   Data           0  ap_uart.o(.debug_frame)
    C$debug_frame883                         0x00001f10   Data           0  ap_uart.o(.debug_frame)
    C$debug_pubnames226                      0x000020a0   Data           0  flash_msm.o(.debug_pubnames)
    C$debug_line8                            0x000027c0   Data           0  ap_armprg.o(.debug_line)
    C$debug_line224                          0x00002820   Data           0  ap_armprg.o(.debug_line)
    C$debug_info9                            0x0000338c   Data           0  flash_msm.o(.debug_info)
    C$debug_loc810                           0x00004080   Data           0  ap_uart.o(.debug_loc)
    C$debug_loc822                           0x000040c4   Data           0  ap_uart.o(.debug_loc)
    C$debug_macinfo5                         0x000040e8   Data           0  ap_uart.o(.debug_macinfo)
    C$debug_loc834                           0x000040f8   Data           0  ap_uart.o(.debug_loc)
    C$debug_loc846                           0x0000412c   Data           0  ap_uart.o(.debug_loc)
    C$debug_loc858                           0x00004390   Data           0  ap_uart.o(.debug_loc)
    C$debug_loc864                           0x000043f4   Data           0  ap_uart.o(.debug_loc)
    C$debug_pubnames706                      0x000059fc   Data           0  ap_uart.o(.debug_pubnames)
    C$debug_pubnames712                      0x00005a20   Data           0  ap_uart.o(.debug_pubnames)
    C$debug_pubnames718                      0x00005a44   Data           0  ap_uart.o(.debug_pubnames)
    C$debug_pubnames724                      0x00005a70   Data           0  ap_uart.o(.debug_pubnames)
    C$debug_pubnames730                      0x00005aa0   Data           0  ap_uart.o(.debug_pubnames)
    C$debug_pubnames736                      0x00005ad0   Data           0  ap_uart.o(.debug_pubnames)
    C$debug_pubnames742                      0x00005b08   Data           0  ap_uart.o(.debug_pubnames)
    C$debug_pubnames748                      0x00005b3c   Data           0  ap_uart.o(.debug_pubnames)
    C$debug_pubnames760                      0x00005b60   Data           0  ap_uart.o(.debug_pubnames)
    C$debug_pubnames772                      0x00005b8c   Data           0  ap_uart.o(.debug_pubnames)
    C$debug_pubnames778                      0x00005bb8   Data           0  ap_uart.o(.debug_pubnames)
    C$debug_pubnames784                      0x00005be0   Data           0  ap_uart.o(.debug_pubnames)
    C$debug_pubnames790                      0x00005c10   Data           0  ap_uart.o(.debug_pubnames)
    C$debug_pubnames796                      0x00005c3c   Data           0  ap_uart.o(.debug_pubnames)
    C$debug_pubnames802                      0x00005c60   Data           0  ap_uart.o(.debug_pubnames)
    C$debug_pubnames808                      0x00005c84   Data           0  ap_uart.o(.debug_pubnames)
    C$debug_pubnames814                      0x00005ca8   Data           0  ap_uart.o(.debug_pubnames)
    C$debug_pubnames820                      0x00005cdc   Data           0  ap_uart.o(.debug_pubnames)
    C$debug_pubnames832                      0x00005d00   Data           0  ap_uart.o(.debug_pubnames)
    C$debug_pubnames844                      0x00005d2c   Data           0  ap_uart.o(.debug_pubnames)
    C$debug_pubnames850                      0x00005d58   Data           0  ap_uart.o(.debug_pubnames)
    C$debug_pubnames856                      0x00005d80   Data           0  ap_uart.o(.debug_pubnames)
    C$debug_pubnames862                      0x00005db0   Data           0  ap_uart.o(.debug_pubnames)
    C$debug_pubnames868                      0x00005ddc   Data           0  ap_uart.o(.debug_pubnames)
    C$debug_pubnames874                      0x00005e00   Data           0  ap_uart.o(.debug_pubnames)
    C$debug_pubnames4                        0x00005e2c   Data           0  ap_uart.o(.debug_pubnames)
    C$debug_pubnames880                      0x00005ebc   Data           0  ap_uart.o(.debug_pubnames)
    C$debug_info225                          0x0000646c   Data           0  flash_msm.o(.debug_info)
    C$debug_info705                          0x00014364   Data           0  ap_uart.o(.debug_info)
    C$debug_info711                          0x000143c4   Data           0  ap_uart.o(.debug_info)
    C$debug_info717                          0x0001445c   Data           0  ap_uart.o(.debug_info)
    C$debug_info723                          0x000144b8   Data           0  ap_uart.o(.debug_info)
    C$debug_info729                          0x00014518   Data           0  ap_uart.o(.debug_info)
    C$debug_info735                          0x00014578   Data           0  ap_uart.o(.debug_info)
    C$debug_info741                          0x000145e0   Data           0  ap_uart.o(.debug_info)
    C$debug_info747                          0x00014644   Data           0  ap_uart.o(.debug_info)
    C$debug_info759                          0x000146c8   Data           0  ap_uart.o(.debug_info)
    C$debug_info3                            0x00014748   Data           0  ap_uart.o(.debug_info)
    C$debug_info771                          0x00014934   Data           0  ap_uart.o(.debug_info)
    C$debug_info777                          0x00014b08   Data           0  ap_uart.o(.debug_info)
    C$debug_info783                          0x00014b60   Data           0  ap_uart.o(.debug_info)
    C$debug_info789                          0x00014c2c   Data           0  ap_uart.o(.debug_info)
    C$debug_info795                          0x00014ce0   Data           0  ap_uart.o(.debug_info)
    C$debug_info801                          0x00014d34   Data           0  ap_uart.o(.debug_info)
    C$debug_info807                          0x00014da8   Data           0  ap_uart.o(.debug_info)
    C$debug_info813                          0x00014e54   Data           0  ap_uart.o(.debug_info)
    C$debug_info819                          0x00014eac   Data           0  ap_uart.o(.debug_info)
    C$debug_info831                          0x00014f40   Data           0  ap_uart.o(.debug_info)
    C$debug_info843                          0x00014fd4   Data           0  ap_uart.o(.debug_info)
    C$debug_info849                          0x00015250   Data           0  ap_uart.o(.debug_info)
    C$debug_info855                          0x000152a8   Data           0  ap_uart.o(.debug_info)
    C$debug_info861                          0x00015340   Data           0  ap_uart.o(.debug_info)
    C$debug_info867                          0x000153e0   Data           0  ap_uart.o(.debug_info)
    C$debug_info873                          0x00015438   Data           0  ap_uart.o(.debug_info)
    C$debug_info879                          0x00015490   Data           0  ap_uart.o(.debug_info)
    C$debug_line800                          0x00019090   Data           0  ap_uart.o(.debug_line)
    C$debug_line806                          0x000190d8   Data           0  ap_uart.o(.debug_line)
    C$debug_line812                          0x0001913c   Data           0  ap_uart.o(.debug_line)
    C$debug_line818                          0x0001917c   Data           0  ap_uart.o(.debug_line)
    C$debug_line830                          0x000191cc   Data           0  ap_uart.o(.debug_line)
    C$debug_line842                          0x00019218   Data           0  ap_uart.o(.debug_line)
    C$debug_line848                          0x00019388   Data           0  ap_uart.o(.debug_line)
    C$debug_line854                          0x000193c8   Data           0  ap_uart.o(.debug_line)
    C$debug_line860                          0x00019414   Data           0  ap_uart.o(.debug_line)
    C$debug_line866                          0x00019470   Data           0  ap_uart.o(.debug_line)
    C$debug_line872                          0x000194ac   Data           0  ap_uart.o(.debug_line)
    C$debug_line2                            0x000194ec   Data           0  ap_uart.o(.debug_line)
    C$debug_line878                          0x0001bb50   Data           0  ap_uart.o(.debug_line)
    uartdm_init_local_receiver_status        0x08055484   ARM Code      36  ap_uart.o(i.uartdm_init_local_receiver_status)
    uartdm_reset_receiver                    0x08055730   ARM Code      20  ap_uart.o(i.uartdm_reset_receiver)
    .data$5                                  0x0805700c   Data           0  ap_uart.o(.data)
    .bss$2                                   0x08076b48   Data           0  ap_uart.o(.bss)
    ..\..\core\wiredconnectivity\qhsusb\src\al\qhsusb_al_hostdl.c 0x00000000   Number         0  qhsusb_al_hostdl.o ABSOLUTE
    i.ap_rx_complete                         0x08050998   ARM Code       0  qhsusb_al_hostdl.o(i.ap_rx_complete)
    i.usb_transmit_byte                      0x0805586c   ARM Code       0  qhsusb_al_hostdl.o(i.usb_transmit_byte)
    i.usb_drain                              0x080557b0   ARM Code       0  qhsusb_al_hostdl.o(i.usb_drain)
    .data                                    0x0805703c   Data           0  qhsusb_al_hostdl.o(.data)
    .bss                                     0x08078b74   Data           0  qhsusb_al_hostdl.o(.bss)
    .data                                    0x08057020   Data           0  qhsusb_al_hostdl.o(.data)
    i.do_usb_check                           0x0805115c   ARM Code       0  qhsusb_al_hostdl.o(i.do_usb_check)
    i.usb_init                               0x080557d8   ARM Code       0  qhsusb_al_hostdl.o(i.usb_init)
    i.usb_active                             0x080557a8   ARM Code       0  qhsusb_al_hostdl.o(i.usb_active)
    C$debug_abbrev0                          0x00000010   Data           0  ap_armprg.o(.debug_abbrev)
    C$debug_macinfo227                       0x00000bf8   Data           0  ap_armprg.o(.debug_macinfo)
    C$debug_macinfo11                        0x00001524   Data           0  flash_msm.o(.debug_macinfo)
    C$debug_pubnames10                       0x000015dc   Data           0  flash_msm.o(.debug_pubnames)
    C$debug_frame811                         0x00001f4c   Data           0  qhsusb_al_hostdl.o(.debug_frame)
    C$debug_frame817                         0x00001f88   Data           0  qhsusb_al_hostdl.o(.debug_frame)
    C$debug_frame823                         0x00001fc4   Data           0  qhsusb_al_hostdl.o(.debug_frame)
    C$debug_frame829                         0x00002010   Data           0  qhsusb_al_hostdl.o(.debug_frame)
    C$debug_frame835                         0x0000204c   Data           0  qhsusb_al_hostdl.o(.debug_frame)
    C$debug_frame841                         0x000020a0   Data           0  qhsusb_al_hostdl.o(.debug_frame)
    C$debug_pubnames226                      0x000020a0   Data           0  flash_msm.o(.debug_pubnames)
    C$debug_line8                            0x000027c0   Data           0  ap_armprg.o(.debug_line)
    C$debug_line224                          0x00002820   Data           0  ap_armprg.o(.debug_line)
    C$debug_info9                            0x0000338c   Data           0  flash_msm.o(.debug_info)
    C$debug_loc810                           0x00004460   Data           0  qhsusb_al_hostdl.o(.debug_loc)
    C$debug_loc816                           0x00004460   Data           0  qhsusb_al_hostdl.o(.debug_loc)
    C$debug_loc822                           0x00004474   Data           0  qhsusb_al_hostdl.o(.debug_loc)
    C$debug_loc828                           0x000044a8   Data           0  qhsusb_al_hostdl.o(.debug_loc)
    C$debug_loc834                           0x000044bc   Data           0  qhsusb_al_hostdl.o(.debug_loc)
    C$debug_loc840                           0x0000453c   Data           0  qhsusb_al_hostdl.o(.debug_loc)
    C$debug_macinfo5                         0x00004e2c   Data           0  qhsusb_al_hostdl.o(.debug_macinfo)
    C$debug_macinfo713                       0x000050cc   Data           0  qhsusb_al_hostdl.o(.debug_macinfo)
    C$debug_macinfo725                       0x00005170   Data           0  qhsusb_al_hostdl.o(.debug_macinfo)
    C$debug_macinfo737                       0x000057e0   Data           0  qhsusb_al_hostdl.o(.debug_macinfo)
    C$debug_macinfo755                       0x00005abc   Data           0  qhsusb_al_hostdl.o(.debug_macinfo)
    C$debug_pubnames772                      0x00005ef4   Data           0  qhsusb_al_hostdl.o(.debug_pubnames)
    C$debug_pubnames778                      0x00005f18   Data           0  qhsusb_al_hostdl.o(.debug_pubnames)
    C$debug_pubnames784                      0x00005f40   Data           0  qhsusb_al_hostdl.o(.debug_pubnames)
    C$debug_pubnames790                      0x00005f60   Data           0  qhsusb_al_hostdl.o(.debug_pubnames)
    C$debug_pubnames796                      0x00005f84   Data           0  qhsusb_al_hostdl.o(.debug_pubnames)
    C$debug_pubnames802                      0x00005fac   Data           0  qhsusb_al_hostdl.o(.debug_pubnames)
    C$debug_pubnames808                      0x00005fcc   Data           0  qhsusb_al_hostdl.o(.debug_pubnames)
    C$debug_pubnames814                      0x00005ff0   Data           0  qhsusb_al_hostdl.o(.debug_pubnames)
    C$debug_pubnames820                      0x00006018   Data           0  qhsusb_al_hostdl.o(.debug_pubnames)
    C$debug_pubnames826                      0x00006038   Data           0  qhsusb_al_hostdl.o(.debug_pubnames)
    C$debug_pubnames832                      0x0000605c   Data           0  qhsusb_al_hostdl.o(.debug_pubnames)
    C$debug_pubnames4                        0x0000607c   Data           0  qhsusb_al_hostdl.o(.debug_pubnames)
    C$debug_pubnames838                      0x000060c4   Data           0  qhsusb_al_hostdl.o(.debug_pubnames)
    C$debug_pubnames712                      0x000060ec   Data           0  qhsusb_al_hostdl.o(.debug_pubnames)
    C$debug_pubnames724                      0x00006138   Data           0  qhsusb_al_hostdl.o(.debug_pubnames)
    C$debug_pubnames754                      0x000062b4   Data           0  qhsusb_al_hostdl.o(.debug_pubnames)
    C$debug_info225                          0x0000646c   Data           0  flash_msm.o(.debug_info)
    C$debug_info771                          0x000154e8   Data           0  qhsusb_al_hostdl.o(.debug_info)
    C$debug_info777                          0x00015570   Data           0  qhsusb_al_hostdl.o(.debug_info)
    C$debug_info783                          0x00015608   Data           0  qhsusb_al_hostdl.o(.debug_info)
    C$debug_info789                          0x000156cc   Data           0  qhsusb_al_hostdl.o(.debug_info)
    C$debug_info711                          0x00015768   Data           0  qhsusb_al_hostdl.o(.debug_info)
    C$debug_info795                          0x0001596c   Data           0  qhsusb_al_hostdl.o(.debug_info)
    C$debug_info723                          0x00015a10   Data           0  qhsusb_al_hostdl.o(.debug_info)
    C$debug_info753                          0x00016128   Data           0  qhsusb_al_hostdl.o(.debug_info)
    C$debug_info801                          0x00016650   Data           0  qhsusb_al_hostdl.o(.debug_info)
    C$debug_info807                          0x00016798   Data           0  qhsusb_al_hostdl.o(.debug_info)
    C$debug_info813                          0x00016824   Data           0  qhsusb_al_hostdl.o(.debug_info)
    C$debug_info819                          0x000168bc   Data           0  qhsusb_al_hostdl.o(.debug_info)
    C$debug_info825                          0x00016970   Data           0  qhsusb_al_hostdl.o(.debug_info)
    C$debug_info831                          0x00016a08   Data           0  qhsusb_al_hostdl.o(.debug_info)
    C$debug_info3                            0x00016b18   Data           0  qhsusb_al_hostdl.o(.debug_info)
    C$debug_info837                          0x00016bf8   Data           0  qhsusb_al_hostdl.o(.debug_info)
    C$debug_line806                          0x0001bb94   Data           0  qhsusb_al_hostdl.o(.debug_line)
    C$debug_line812                          0x0001bc04   Data           0  qhsusb_al_hostdl.o(.debug_line)
    C$debug_line818                          0x0001bc74   Data           0  qhsusb_al_hostdl.o(.debug_line)
    C$debug_line824                          0x0001bcec   Data           0  qhsusb_al_hostdl.o(.debug_line)
    C$debug_line830                          0x0001bd60   Data           0  qhsusb_al_hostdl.o(.debug_line)
    C$debug_line2                            0x0001bdf8   Data           0  qhsusb_al_hostdl.o(.debug_line)
    C$debug_line836                          0x0001e4b0   Data           0  qhsusb_al_hostdl.o(.debug_line)
    C$debug_line710                          0x0001e528   Data           0  qhsusb_al_hostdl.o(.debug_line)
    C$debug_line722                          0x0001e5b0   Data           0  qhsusb_al_hostdl.o(.debug_line)
    C$debug_line734                          0x0001e638   Data           0  qhsusb_al_hostdl.o(.debug_line)
    C$debug_line752                          0x0001e700   Data           0  qhsusb_al_hostdl.o(.debug_line)
    ap_rx_complete                           0x08050998   ARM Code      44  qhsusb_al_hostdl.o(i.ap_rx_complete)
    do_usb_check                             0x0805115c   ARM Code      12  qhsusb_al_hostdl.o(i.do_usb_check)
    usb_active                               0x080557a8   ARM Code       8  qhsusb_al_hostdl.o(i.usb_active)
    usb_drain                                0x080557b0   ARM Code      36  qhsusb_al_hostdl.o(i.usb_drain)
    usb_init                                 0x080557d8   ARM Code     132  qhsusb_al_hostdl.o(i.usb_init)
    usb_transmit_byte                        0x0805586c   ARM Code       4  qhsusb_al_hostdl.o(i.usb_transmit_byte)
    .data$0                                  0x08057020   Data           0  qhsusb_al_hostdl.o(.data)
    qhsusb_str_product                       0x08057020   Data          28  qhsusb_al_hostdl.o(.data)
    .data$5                                  0x0805703c   Data           0  qhsusb_al_hostdl.o(.data)
    .bss$2                                   0x08078b74   Data           0  qhsusb_al_hostdl.o(.bss)
    dev                                      0x08078b74   Data           4  qhsusb_al_hostdl.o(.bss)
    ..\..\core\wiredconnectivity\qhsusb\src\func\qhsusb_fd_hdlc.c 0x00000000   Number         0  qhsusb_fd_hdlc.o ABSOLUTE
    i.qhsusb_fd_hdlc_tx_byte                 0x08054ff0   ARM Code       0  qhsusb_fd_hdlc.o(i.qhsusb_fd_hdlc_tx_byte)
    .data                                    0x0805716c   Data           0  qhsusb_fd_hdlc.o(.data)
    .data                                    0x080571ce   Data           0  qhsusb_fd_hdlc.o(.data)
    .data                                    0x08057168   Data           0  qhsusb_fd_hdlc.o(.data)
    i.qhsusb_fd_hdlc_rx_completed            0x08054fe0   ARM Code       0  qhsusb_fd_hdlc.o(i.qhsusb_fd_hdlc_rx_completed)
    .data                                    0x080571e0   Data           0  qhsusb_fd_hdlc.o(.data)
    .data                                    0x080571aa   Data           0  qhsusb_fd_hdlc.o(.data)
    i.qhsusb_fd_hdlc_init                    0x08054e98   ARM Code       0  qhsusb_fd_hdlc.o(i.qhsusb_fd_hdlc_init)
    i.hdlc_init_rx                           0x08053e9c   ARM Code       0  qhsusb_fd_hdlc.o(i.hdlc_init_rx)
    .data                                    0x08057050   Data           0  qhsusb_fd_hdlc.o(.data)
    .bss                                     0x08078b78   Data           0  qhsusb_fd_hdlc.o(.bss)
    i.hdlc_tx_callback                       0x08053fa0   ARM Code       0  qhsusb_fd_hdlc.o(i.hdlc_tx_callback)
    i.hdlc_notify_cb                         0x08053f1c   ARM Code       0  qhsusb_fd_hdlc.o(i.hdlc_notify_cb)
    i.qhsusb_fd_hdlc_is_tx_active            0x08054fb4   ARM Code       0  qhsusb_fd_hdlc.o(i.qhsusb_fd_hdlc_is_tx_active)
    i.hdlc_rx_callback                       0x08053f78   ARM Code       0  qhsusb_fd_hdlc.o(i.hdlc_rx_callback)
    C$debug_abbrev0                          0x00000010   Data           0  ap_armprg.o(.debug_abbrev)
    C$debug_macinfo23                        0x00001524   Data           0  flash_msm.o(.debug_macinfo)
    C$debug_pubnames22                       0x000015dc   Data           0  flash_msm.o(.debug_pubnames)
    C$debug_frame337                         0x000020f4   Data           0  qhsusb_fd_hdlc.o(.debug_frame)
    C$debug_frame343                         0x00002130   Data           0  qhsusb_fd_hdlc.o(.debug_frame)
    C$debug_frame355                         0x00002180   Data           0  qhsusb_fd_hdlc.o(.debug_frame)
    C$debug_frame361                         0x000021dc   Data           0  qhsusb_fd_hdlc.o(.debug_frame)
    C$debug_frame367                         0x00002218   Data           0  qhsusb_fd_hdlc.o(.debug_frame)
    C$debug_frame373                         0x00002254   Data           0  qhsusb_fd_hdlc.o(.debug_frame)
    C$debug_frame379                         0x000022bc   Data           0  qhsusb_fd_hdlc.o(.debug_frame)
    C$debug_frame385                         0x000022f8   Data           0  qhsusb_fd_hdlc.o(.debug_frame)
    C$debug_line20                           0x000027c0   Data           0  ap_armprg.o(.debug_line)
    C$debug_info21                           0x0000338c   Data           0  flash_msm.o(.debug_info)
    C$debug_loc336                           0x00004594   Data           0  qhsusb_fd_hdlc.o(.debug_loc)
    C$debug_loc342                           0x000045fc   Data           0  qhsusb_fd_hdlc.o(.debug_loc)
    C$debug_loc354                           0x0000469c   Data           0  qhsusb_fd_hdlc.o(.debug_loc)
    C$debug_loc360                           0x00004708   Data           0  qhsusb_fd_hdlc.o(.debug_loc)
    C$debug_loc366                           0x0000471c   Data           0  qhsusb_fd_hdlc.o(.debug_loc)
    C$debug_loc372                           0x0000473c   Data           0  qhsusb_fd_hdlc.o(.debug_loc)
    C$debug_loc378                           0x000047e4   Data           0  qhsusb_fd_hdlc.o(.debug_loc)
    C$debug_loc384                           0x00004804   Data           0  qhsusb_fd_hdlc.o(.debug_loc)
    C$debug_macinfo17                        0x000050cc   Data           0  qhsusb_al_hostdl.o(.debug_macinfo)
    C$debug_macinfo239                       0x00005170   Data           0  qhsusb_al_hostdl.o(.debug_macinfo)
    C$debug_macinfo251                       0x00005abc   Data           0  qhsusb_al_hostdl.o(.debug_macinfo)
    C$debug_macinfo5                         0x00005c50   Data           0  qhsusb_fd_hdlc.o(.debug_macinfo)
    C$debug_pubnames16                       0x000060ec   Data           0  qhsusb_al_hostdl.o(.debug_pubnames)
    C$debug_pubnames238                      0x00006138   Data           0  qhsusb_al_hostdl.o(.debug_pubnames)
    C$debug_pubnames250                      0x000062b4   Data           0  qhsusb_al_hostdl.o(.debug_pubnames)
    C$debug_pubnames280                      0x00006458   Data           0  qhsusb_fd_hdlc.o(.debug_pubnames)
    C$debug_pubnames286                      0x0000647c   Data           0  qhsusb_fd_hdlc.o(.debug_pubnames)
    C$debug_pubnames292                      0x000064a4   Data           0  qhsusb_fd_hdlc.o(.debug_pubnames)
    C$debug_pubnames298                      0x000064cc   Data           0  qhsusb_fd_hdlc.o(.debug_pubnames)
    C$debug_pubnames304                      0x000064f4   Data           0  qhsusb_fd_hdlc.o(.debug_pubnames)
    C$debug_pubnames316                      0x00006520   Data           0  qhsusb_fd_hdlc.o(.debug_pubnames)
    C$debug_pubnames322                      0x00006550   Data           0  qhsusb_fd_hdlc.o(.debug_pubnames)
    C$debug_pubnames328                      0x00006584   Data           0  qhsusb_fd_hdlc.o(.debug_pubnames)
    C$debug_pubnames334                      0x000065b8   Data           0  qhsusb_fd_hdlc.o(.debug_pubnames)
    C$debug_pubnames340                      0x000065e0   Data           0  qhsusb_fd_hdlc.o(.debug_pubnames)
    C$debug_pubnames352                      0x0000660c   Data           0  qhsusb_fd_hdlc.o(.debug_pubnames)
    C$debug_pubnames358                      0x0000663c   Data           0  qhsusb_fd_hdlc.o(.debug_pubnames)
    C$debug_pubnames364                      0x00006670   Data           0  qhsusb_fd_hdlc.o(.debug_pubnames)
    C$debug_pubnames370                      0x000066a4   Data           0  qhsusb_fd_hdlc.o(.debug_pubnames)
    C$debug_pubnames376                      0x000066c8   Data           0  qhsusb_fd_hdlc.o(.debug_pubnames)
    C$debug_pubnames4                        0x000066f0   Data           0  qhsusb_fd_hdlc.o(.debug_pubnames)
    C$debug_pubnames382                      0x00006860   Data           0  qhsusb_fd_hdlc.o(.debug_pubnames)
    C$debug_info15                           0x00015768   Data           0  qhsusb_al_hostdl.o(.debug_info)
    C$debug_info237                          0x00015a10   Data           0  qhsusb_al_hostdl.o(.debug_info)
    C$debug_info249                          0x00016128   Data           0  qhsusb_al_hostdl.o(.debug_info)
    C$debug_info279                          0x00016cac   Data           0  qhsusb_fd_hdlc.o(.debug_info)
    C$debug_info285                          0x00016db8   Data           0  qhsusb_fd_hdlc.o(.debug_info)
    C$debug_info291                          0x00016e8c   Data           0  qhsusb_fd_hdlc.o(.debug_info)
    C$debug_info297                          0x00016f28   Data           0  qhsusb_fd_hdlc.o(.debug_info)
    C$debug_info3                            0x00016fc4   Data           0  qhsusb_fd_hdlc.o(.debug_info)
    C$debug_info303                          0x00017300   Data           0  qhsusb_fd_hdlc.o(.debug_info)
    C$debug_info315                          0x00017414   Data           0  qhsusb_fd_hdlc.o(.debug_info)
    C$debug_info321                          0x0001750c   Data           0  qhsusb_fd_hdlc.o(.debug_info)
    C$debug_info327                          0x000175c4   Data           0  qhsusb_fd_hdlc.o(.debug_info)
    C$debug_info333                          0x00017668   Data           0  qhsusb_fd_hdlc.o(.debug_info)
    C$debug_info339                          0x00017754   Data           0  qhsusb_fd_hdlc.o(.debug_info)
    C$debug_info351                          0x0001783c   Data           0  qhsusb_fd_hdlc.o(.debug_info)
    C$debug_info357                          0x0001791c   Data           0  qhsusb_fd_hdlc.o(.debug_info)
    C$debug_info363                          0x000179cc   Data           0  qhsusb_fd_hdlc.o(.debug_info)
    C$debug_info369                          0x00017a64   Data           0  qhsusb_fd_hdlc.o(.debug_info)
    C$debug_info375                          0x00017ba0   Data           0  qhsusb_fd_hdlc.o(.debug_info)
    C$debug_info381                          0x00017c38   Data           0  qhsusb_fd_hdlc.o(.debug_info)
    C$debug_line14                           0x0001e528   Data           0  qhsusb_al_hostdl.o(.debug_line)
    C$debug_line236                          0x0001e5b0   Data           0  qhsusb_al_hostdl.o(.debug_line)
    C$debug_line248                          0x0001e700   Data           0  qhsusb_al_hostdl.o(.debug_line)
    C$debug_line332                          0x0001e77c   Data           0  qhsusb_fd_hdlc.o(.debug_line)
    C$debug_line338                          0x0001e814   Data           0  qhsusb_fd_hdlc.o(.debug_line)
    C$debug_line350                          0x0001e8f8   Data           0  qhsusb_fd_hdlc.o(.debug_line)
    C$debug_line356                          0x0001e98c   Data           0  qhsusb_fd_hdlc.o(.debug_line)
    C$debug_line362                          0x0001ea04   Data           0  qhsusb_fd_hdlc.o(.debug_line)
    C$debug_line368                          0x0001ea74   Data           0  qhsusb_fd_hdlc.o(.debug_line)
    C$debug_line374                          0x0001eb28   Data           0  qhsusb_fd_hdlc.o(.debug_line)
    C$debug_line2                            0x0001eb98   Data           0  qhsusb_fd_hdlc.o(.debug_line)
    C$debug_line380                          0x00021224   Data           0  qhsusb_fd_hdlc.o(.debug_line)
    hdlc_init_rx                             0x08053e9c   ARM Code     120  qhsusb_fd_hdlc.o(i.hdlc_init_rx)
    hdlc_notify_cb                           0x08053f1c   ARM Code      88  qhsusb_fd_hdlc.o(i.hdlc_notify_cb)
    hdlc_rx_callback                         0x08053f78   ARM Code      36  qhsusb_fd_hdlc.o(i.hdlc_rx_callback)
    hdlc_tx_callback                         0x08053fa0   ARM Code      12  qhsusb_fd_hdlc.o(i.hdlc_tx_callback)
    .data$0                                  0x08057050   Data           0  qhsusb_fd_hdlc.o(.data)
    hdlc_usb_device_obex                     0x08057050   Data          18  qhsusb_fd_hdlc.o(.data)
    hdlc_usb_config_obex                     0x08057062   Data          32  qhsusb_fd_hdlc.o(.data)
    sw_data_eps                              0x08057084   Data          40  qhsusb_fd_hdlc.o(.data)
    sw_data_ifc                              0x080570ac   Data          24  qhsusb_fd_hdlc.o(.data)
    sw_config                                0x080570c4   Data          16  qhsusb_fd_hdlc.o(.data)
    sw_device                                0x080570d4   Data         148  qhsusb_fd_hdlc.o(.data)
    .data$5                                  0x08057168   Data           0  qhsusb_fd_hdlc.o(.data)
    str0                                     0x08057168   Data           4  qhsusb_fd_hdlc.o(.data)
    .data$10                                 0x0805716c   Data           0  qhsusb_fd_hdlc.o(.data)
    str_manuf                                0x0805716c   Data          62  qhsusb_fd_hdlc.o(.data)
    .data$15                                 0x080571aa   Data           0  qhsusb_fd_hdlc.o(.data)
    qhsusb_str_product                       0x080571aa   Data          36  qhsusb_fd_hdlc.o(.data)
    .data$20                                 0x080571ce   Data           0  qhsusb_fd_hdlc.o(.data)
    str_serial                               0x080571ce   Data          18  qhsusb_fd_hdlc.o(.data)
    .data$25                                 0x080571e0   Data           0  qhsusb_fd_hdlc.o(.data)
    sw_strings                               0x080571e0   Data          48  qhsusb_fd_hdlc.o(.data)
    .bss$2                                   0x08078b78   Data           0  qhsusb_fd_hdlc.o(.bss)
    user_rx_callback                         0x08078b78   Data           4  qhsusb_fd_hdlc.o(.bss)
    hdlc_tx_buffer                           0x08078b7c   Data        4096  qhsusb_fd_hdlc.o(.bss)
    hdlc_tx_urb                              0x08079b7c   Data          48  qhsusb_fd_hdlc.o(.bss)
    hdlc_rx_buffer                           0x08079bac   Data        8192  qhsusb_fd_hdlc.o(.bss)
    hdlc_rx_urb                              0x0807bbac   Data          96  qhsusb_fd_hdlc.o(.bss)
    ..\..\core\wiredconnectivity\qhsusb\src\dcd\qhsusb_dcd_ch9.c 0x00000000   Number         0  qhsusb_dcd_ch9.o ABSOLUTE
    i.qhsusb_dcd_port_status_changed         0x080546ac   ARM Code       0  qhsusb_dcd_ch9.o(i.qhsusb_dcd_port_status_changed)
    i.handle_get_descriptor                  0x080534dc   ARM Code       0  qhsusb_dcd_ch9.o(i.handle_get_descriptor)
    i.qhsusb_dcd_init                        0x08054620   ARM Code       0  qhsusb_dcd_ch9.o(i.qhsusb_dcd_init)
    i.dcd_control_reply                      0x08050bac   ARM Code       0  qhsusb_dcd_ch9.o(i.dcd_control_reply)
    i.dcd_callback_reset                     0x08050aec   ARM Code       0  qhsusb_dcd_ch9.o(i.dcd_callback_reset)
    i.qhsusb_dcd_control_transfer            0x080545d8   ARM Code       0  qhsusb_dcd_ch9.o(i.qhsusb_dcd_control_transfer)
    i.qhsusb_dcd_poll                        0x0805469c   ARM Code       0  qhsusb_dcd_ch9.o(i.qhsusb_dcd_poll)
    i.handle_setup_dev                       0x08053880   ARM Code       0  qhsusb_dcd_ch9.o(i.handle_setup_dev)
    .data                                    0x08057210   Data           0  qhsusb_dcd_ch9.o(.data)
    i.qhsusb_submit_urb                      0x08055060   ARM Code       0  qhsusb_dcd_ch9.o(i.qhsusb_submit_urb)
    i.handle_setup_ifc                       0x08053a60   ARM Code       0  qhsusb_dcd_ch9.o(i.handle_setup_ifc)
    i.handle_setup_ep                        0x08053974   ARM Code       0  qhsusb_dcd_ch9.o(i.handle_setup_ep)
    i.dcd_callback_setup                     0x08050b24   ARM Code       0  qhsusb_dcd_ch9.o(i.dcd_callback_setup)
    i.handle_ep_halt                         0x08053488   ARM Code       0  qhsusb_dcd_ch9.o(i.handle_ep_halt)
    i.dcd_set_interface                      0x08050bcc   ARM Code       0  qhsusb_dcd_ch9.o(i.dcd_set_interface)
    i.dcd_notify                             0x08050bbc   ARM Code       0  qhsusb_dcd_ch9.o(i.dcd_notify)
    i.qhsusb_dcd_set_config                  0x080547f4   ARM Code       0  qhsusb_dcd_ch9.o(i.qhsusb_dcd_set_config)
    C$debug_abbrev0                          0x00000010   Data           0  ap_armprg.o(.debug_abbrev)
    C$debug_macinfo23                        0x00001524   Data           0  flash_msm.o(.debug_macinfo)
    C$debug_pubnames22                       0x000015dc   Data           0  flash_msm.o(.debug_pubnames)
    C$debug_frame415                         0x00002344   Data           0  qhsusb_dcd_ch9.o(.debug_frame)
    C$debug_frame421                         0x00002398   Data           0  qhsusb_dcd_ch9.o(.debug_frame)
    C$debug_frame427                         0x000023d4   Data           0  qhsusb_dcd_ch9.o(.debug_frame)
    C$debug_frame433                         0x00002424   Data           0  qhsusb_dcd_ch9.o(.debug_frame)
    C$debug_frame439                         0x00002480   Data           0  qhsusb_dcd_ch9.o(.debug_frame)
    C$debug_frame445                         0x000024cc   Data           0  qhsusb_dcd_ch9.o(.debug_frame)
    C$debug_frame451                         0x00002530   Data           0  qhsusb_dcd_ch9.o(.debug_frame)
    C$debug_frame457                         0x00002580   Data           0  qhsusb_dcd_ch9.o(.debug_frame)
    C$debug_frame469                         0x000025bc   Data           0  qhsusb_dcd_ch9.o(.debug_frame)
    C$debug_frame475                         0x000025f8   Data           0  qhsusb_dcd_ch9.o(.debug_frame)
    C$debug_frame481                         0x00002648   Data           0  qhsusb_dcd_ch9.o(.debug_frame)
    C$debug_frame487                         0x00002684   Data           0  qhsusb_dcd_ch9.o(.debug_frame)
    C$debug_frame493                         0x000026d8   Data           0  qhsusb_dcd_ch9.o(.debug_frame)
    C$debug_frame499                         0x00002734   Data           0  qhsusb_dcd_ch9.o(.debug_frame)
    C$debug_frame505                         0x00002770   Data           0  qhsusb_dcd_ch9.o(.debug_frame)
    C$debug_frame511                         0x000027bc   Data           0  qhsusb_dcd_ch9.o(.debug_frame)
    C$debug_line20                           0x000027c0   Data           0  ap_armprg.o(.debug_line)
    C$debug_info21                           0x0000338c   Data           0  flash_msm.o(.debug_info)
    C$debug_loc414                           0x00004850   Data           0  qhsusb_dcd_ch9.o(.debug_loc)
    C$debug_loc420                           0x00004984   Data           0  qhsusb_dcd_ch9.o(.debug_loc)
    C$debug_loc426                           0x000049b8   Data           0  qhsusb_dcd_ch9.o(.debug_loc)
    C$debug_loc432                           0x00004ac0   Data           0  qhsusb_dcd_ch9.o(.debug_loc)
    C$debug_loc438                           0x00004bc4   Data           0  qhsusb_dcd_ch9.o(.debug_loc)
    C$debug_loc444                           0x00004c18   Data           0  qhsusb_dcd_ch9.o(.debug_loc)
    C$debug_loc450                           0x00004d18   Data           0  qhsusb_dcd_ch9.o(.debug_loc)
    C$debug_loc456                           0x00004d78   Data           0  qhsusb_dcd_ch9.o(.debug_loc)
    C$debug_loc468                           0x00004d98   Data           0  qhsusb_dcd_ch9.o(.debug_loc)
    C$debug_loc474                           0x00004dd4   Data           0  qhsusb_dcd_ch9.o(.debug_loc)
    C$debug_loc480                           0x00004ec4   Data           0  qhsusb_dcd_ch9.o(.debug_loc)
    C$debug_loc486                           0x00004f00   Data           0  qhsusb_dcd_ch9.o(.debug_loc)
    C$debug_loc492                           0x00005030   Data           0  qhsusb_dcd_ch9.o(.debug_loc)
    C$debug_macinfo239                       0x000050cc   Data           0  qhsusb_al_hostdl.o(.debug_macinfo)
    C$debug_macinfo17                        0x00005170   Data           0  qhsusb_al_hostdl.o(.debug_macinfo)
    C$debug_loc498                           0x00005178   Data           0  qhsusb_dcd_ch9.o(.debug_loc)
    C$debug_loc504                           0x00005278   Data           0  qhsusb_dcd_ch9.o(.debug_loc)
    C$debug_loc510                           0x0000540c   Data           0  qhsusb_dcd_ch9.o(.debug_loc)
    C$debug_macinfo251                       0x000057e0   Data           0  qhsusb_al_hostdl.o(.debug_macinfo)
    C$debug_macinfo11                        0x00005abc   Data           0  qhsusb_al_hostdl.o(.debug_macinfo)
    C$debug_macinfo5                         0x00005f1c   Data           0  qhsusb_dcd_ch9.o(.debug_macinfo)
    C$debug_pubnames238                      0x000060ec   Data           0  qhsusb_al_hostdl.o(.debug_pubnames)
    C$debug_pubnames16                       0x00006138   Data           0  qhsusb_al_hostdl.o(.debug_pubnames)
    C$debug_pubnames10                       0x000062b4   Data           0  qhsusb_al_hostdl.o(.debug_pubnames)
    C$debug_pubnames268                      0x00006888   Data           0  qhsusb_dcd_ch9.o(.debug_pubnames)
    C$debug_pubnames274                      0x000068b4   Data           0  qhsusb_dcd_ch9.o(.debug_pubnames)
    C$debug_pubnames280                      0x000068d8   Data           0  qhsusb_dcd_ch9.o(.debug_pubnames)
    C$debug_pubnames286                      0x00006904   Data           0  qhsusb_dcd_ch9.o(.debug_pubnames)
    C$debug_pubnames292                      0x00006924   Data           0  qhsusb_dcd_ch9.o(.debug_pubnames)
    C$debug_pubnames298                      0x00006944   Data           0  qhsusb_dcd_ch9.o(.debug_pubnames)
    C$debug_pubnames304                      0x00006968   Data           0  qhsusb_dcd_ch9.o(.debug_pubnames)
    C$debug_pubnames310                      0x0000698c   Data           0  qhsusb_dcd_ch9.o(.debug_pubnames)
    C$debug_pubnames316                      0x000069b8   Data           0  qhsusb_dcd_ch9.o(.debug_pubnames)
    C$debug_pubnames322                      0x000069e0   Data           0  qhsusb_dcd_ch9.o(.debug_pubnames)
    C$debug_pubnames328                      0x00006a0c   Data           0  qhsusb_dcd_ch9.o(.debug_pubnames)
    C$debug_pubnames334                      0x00006a34   Data           0  qhsusb_dcd_ch9.o(.debug_pubnames)
    C$debug_pubnames340                      0x00006a68   Data           0  qhsusb_dcd_ch9.o(.debug_pubnames)
    C$debug_pubnames346                      0x00006a90   Data           0  qhsusb_dcd_ch9.o(.debug_pubnames)
    C$debug_pubnames352                      0x00006abc   Data           0  qhsusb_dcd_ch9.o(.debug_pubnames)
    C$debug_pubnames358                      0x00006ae4   Data           0  qhsusb_dcd_ch9.o(.debug_pubnames)
    C$debug_pubnames364                      0x00006b0c   Data           0  qhsusb_dcd_ch9.o(.debug_pubnames)
    C$debug_pubnames370                      0x00006b34   Data           0  qhsusb_dcd_ch9.o(.debug_pubnames)
    C$debug_pubnames376                      0x00006b5c   Data           0  qhsusb_dcd_ch9.o(.debug_pubnames)
    C$debug_pubnames382                      0x00006b94   Data           0  qhsusb_dcd_ch9.o(.debug_pubnames)
    C$debug_pubnames388                      0x00006bc0   Data           0  qhsusb_dcd_ch9.o(.debug_pubnames)
    C$debug_pubnames394                      0x00006bec   Data           0  qhsusb_dcd_ch9.o(.debug_pubnames)
    C$debug_pubnames400                      0x00006c14   Data           0  qhsusb_dcd_ch9.o(.debug_pubnames)
    C$debug_pubnames412                      0x00006c3c   Data           0  qhsusb_dcd_ch9.o(.debug_pubnames)
    C$debug_pubnames418                      0x00006c68   Data           0  qhsusb_dcd_ch9.o(.debug_pubnames)
    C$debug_pubnames424                      0x00006c90   Data           0  qhsusb_dcd_ch9.o(.debug_pubnames)
    C$debug_pubnames430                      0x00006cc4   Data           0  qhsusb_dcd_ch9.o(.debug_pubnames)
    C$debug_pubnames436                      0x00006cfc   Data           0  qhsusb_dcd_ch9.o(.debug_pubnames)
    C$debug_pubnames442                      0x00006d28   Data           0  qhsusb_dcd_ch9.o(.debug_pubnames)
    C$debug_pubnames448                      0x00006d54   Data           0  qhsusb_dcd_ch9.o(.debug_pubnames)
    C$debug_pubnames454                      0x00006d7c   Data           0  qhsusb_dcd_ch9.o(.debug_pubnames)
    C$debug_pubnames466                      0x00006da4   Data           0  qhsusb_dcd_ch9.o(.debug_pubnames)
    C$debug_pubnames472                      0x00006dc8   Data           0  qhsusb_dcd_ch9.o(.debug_pubnames)
    C$debug_pubnames478                      0x00006df0   Data           0  qhsusb_dcd_ch9.o(.debug_pubnames)
    C$debug_pubnames484                      0x00006e18   Data           0  qhsusb_dcd_ch9.o(.debug_pubnames)
    C$debug_pubnames490                      0x00006e40   Data           0  qhsusb_dcd_ch9.o(.debug_pubnames)
    C$debug_pubnames496                      0x00006e68   Data           0  qhsusb_dcd_ch9.o(.debug_pubnames)
    C$debug_pubnames502                      0x00006e90   Data           0  qhsusb_dcd_ch9.o(.debug_pubnames)
    C$debug_pubnames4                        0x00006ebc   Data           0  qhsusb_dcd_ch9.o(.debug_pubnames)
    C$debug_pubnames508                      0x00006ee0   Data           0  qhsusb_dcd_ch9.o(.debug_pubnames)
    C$debug_pubnames250                      0x00006f08   Data           0  qhsusb_dcd_ch9.o(.debug_pubnames)
    C$debug_info237                          0x00015768   Data           0  qhsusb_al_hostdl.o(.debug_info)
    C$debug_info15                           0x00015a10   Data           0  qhsusb_al_hostdl.o(.debug_info)
    C$debug_info9                            0x00016128   Data           0  qhsusb_al_hostdl.o(.debug_info)
    C$debug_info267                          0x00017cd4   Data           0  qhsusb_dcd_ch9.o(.debug_info)
    C$debug_info249                          0x00017d90   Data           0  qhsusb_dcd_ch9.o(.debug_info)
    C$debug_info3                            0x00017f00   Data           0  qhsusb_dcd_ch9.o(.debug_info)
    C$debug_info273                          0x00017fb8   Data           0  qhsusb_dcd_ch9.o(.debug_info)
    C$debug_info279                          0x00018088   Data           0  qhsusb_dcd_ch9.o(.debug_info)
    C$debug_info285                          0x0001816c   Data           0  qhsusb_dcd_ch9.o(.debug_info)
    C$debug_info291                          0x00018220   Data           0  qhsusb_dcd_ch9.o(.debug_info)
    C$debug_info297                          0x000182fc   Data           0  qhsusb_dcd_ch9.o(.debug_info)
    C$debug_info303                          0x000183e0   Data           0  qhsusb_dcd_ch9.o(.debug_info)
    C$debug_info309                          0x00018488   Data           0  qhsusb_dcd_ch9.o(.debug_info)
    C$debug_info315                          0x00018540   Data           0  qhsusb_dcd_ch9.o(.debug_info)
    C$debug_info321                          0x00018688   Data           0  qhsusb_dcd_ch9.o(.debug_info)
    C$debug_info327                          0x00018890   Data           0  qhsusb_dcd_ch9.o(.debug_info)
    C$debug_info333                          0x00018998   Data           0  qhsusb_dcd_ch9.o(.debug_info)
    C$debug_info339                          0x00018ac8   Data           0  qhsusb_dcd_ch9.o(.debug_info)
    C$debug_info345                          0x00018bbc   Data           0  qhsusb_dcd_ch9.o(.debug_info)
    C$debug_info351                          0x00018d60   Data           0  qhsusb_dcd_ch9.o(.debug_info)
    C$debug_info357                          0x00018f10   Data           0  qhsusb_dcd_ch9.o(.debug_info)
    C$debug_info363                          0x000190a8   Data           0  qhsusb_dcd_ch9.o(.debug_info)
    C$debug_info369                          0x000191fc   Data           0  qhsusb_dcd_ch9.o(.debug_info)
    C$debug_info375                          0x00019380   Data           0  qhsusb_dcd_ch9.o(.debug_info)
    C$debug_info381                          0x00019584   Data           0  qhsusb_dcd_ch9.o(.debug_info)
    C$debug_info387                          0x00019654   Data           0  qhsusb_dcd_ch9.o(.debug_info)
    C$debug_info393                          0x00019844   Data           0  qhsusb_dcd_ch9.o(.debug_info)
    C$debug_info399                          0x00019930   Data           0  qhsusb_dcd_ch9.o(.debug_info)
    C$debug_info411                          0x000199d4   Data           0  qhsusb_dcd_ch9.o(.debug_info)
    C$debug_info417                          0x00019c80   Data           0  qhsusb_dcd_ch9.o(.debug_info)
    C$debug_info423                          0x00019d94   Data           0  qhsusb_dcd_ch9.o(.debug_info)
    C$debug_info429                          0x00019e98   Data           0  qhsusb_dcd_ch9.o(.debug_info)
    C$debug_info435                          0x0001a368   Data           0  qhsusb_dcd_ch9.o(.debug_info)
    C$debug_info441                          0x0001a43c   Data           0  qhsusb_dcd_ch9.o(.debug_info)
    C$debug_info447                          0x0001a590   Data           0  qhsusb_dcd_ch9.o(.debug_info)
    C$debug_info453                          0x0001a6b4   Data           0  qhsusb_dcd_ch9.o(.debug_info)
    C$debug_info465                          0x0001a764   Data           0  qhsusb_dcd_ch9.o(.debug_info)
    C$debug_info471                          0x0001a83c   Data           0  qhsusb_dcd_ch9.o(.debug_info)
    C$debug_info477                          0x0001a960   Data           0  qhsusb_dcd_ch9.o(.debug_info)
    C$debug_info483                          0x0001aa18   Data           0  qhsusb_dcd_ch9.o(.debug_info)
    C$debug_info489                          0x0001abcc   Data           0  qhsusb_dcd_ch9.o(.debug_info)
    C$debug_info495                          0x0001ad64   Data           0  qhsusb_dcd_ch9.o(.debug_info)
    C$debug_info501                          0x0001af30   Data           0  qhsusb_dcd_ch9.o(.debug_info)
    C$debug_info507                          0x0001b14c   Data           0  qhsusb_dcd_ch9.o(.debug_info)
    C$debug_line236                          0x0001e528   Data           0  qhsusb_al_hostdl.o(.debug_line)
    C$debug_line14                           0x0001e5b0   Data           0  qhsusb_al_hostdl.o(.debug_line)
    C$debug_line248                          0x0001e638   Data           0  qhsusb_al_hostdl.o(.debug_line)
    C$debug_line8                            0x0001e700   Data           0  qhsusb_al_hostdl.o(.debug_line)
    C$debug_line410                          0x00021294   Data           0  qhsusb_dcd_ch9.o(.debug_line)
    C$debug_line416                          0x00021374   Data           0  qhsusb_dcd_ch9.o(.debug_line)
    C$debug_line422                          0x000213f4   Data           0  qhsusb_dcd_ch9.o(.debug_line)
    C$debug_line428                          0x0002147c   Data           0  qhsusb_dcd_ch9.o(.debug_line)
    C$debug_line434                          0x0002156c   Data           0  qhsusb_dcd_ch9.o(.debug_line)
    C$debug_line440                          0x000215ec   Data           0  qhsusb_dcd_ch9.o(.debug_line)
    C$debug_line446                          0x0002167c   Data           0  qhsusb_dcd_ch9.o(.debug_line)
    C$debug_line452                          0x00021718   Data           0  qhsusb_dcd_ch9.o(.debug_line)
    C$debug_line464                          0x0002178c   Data           0  qhsusb_dcd_ch9.o(.debug_line)
    C$debug_line470                          0x00021800   Data           0  qhsusb_dcd_ch9.o(.debug_line)
    C$debug_line476                          0x00021894   Data           0  qhsusb_dcd_ch9.o(.debug_line)
    C$debug_line482                          0x00021904   Data           0  qhsusb_dcd_ch9.o(.debug_line)
    C$debug_line488                          0x0002199c   Data           0  qhsusb_dcd_ch9.o(.debug_line)
    C$debug_line494                          0x00021a54   Data           0  qhsusb_dcd_ch9.o(.debug_line)
    C$debug_line500                          0x00021b04   Data           0  qhsusb_dcd_ch9.o(.debug_line)
    C$debug_line2                            0x00021bc8   Data           0  qhsusb_dcd_ch9.o(.debug_line)
    C$debug_line506                          0x00024280   Data           0  qhsusb_dcd_ch9.o(.debug_line)
    dcd_callback_reset                       0x08050aec   ARM Code      56  qhsusb_dcd_ch9.o(i.dcd_callback_reset)
    dcd_callback_setup                       0x08050b24   ARM Code     136  qhsusb_dcd_ch9.o(i.dcd_callback_setup)
    dcd_control_reply                        0x08050bac   ARM Code      16  qhsusb_dcd_ch9.o(i.dcd_control_reply)
    dcd_notify                               0x08050bbc   ARM Code      16  qhsusb_dcd_ch9.o(i.dcd_notify)
    dcd_set_interface                        0x08050bcc   ARM Code     124  qhsusb_dcd_ch9.o(i.dcd_set_interface)
    handle_ep_halt                           0x08053488   ARM Code      84  qhsusb_dcd_ch9.o(i.handle_ep_halt)
    handle_get_descriptor                    0x080534dc   ARM Code     236  qhsusb_dcd_ch9.o(i.handle_get_descriptor)
    handle_setup_dev                         0x08053880   ARM Code     244  qhsusb_dcd_ch9.o(i.handle_setup_dev)
    handle_setup_ep                          0x08053974   ARM Code     236  qhsusb_dcd_ch9.o(i.handle_setup_ep)
    handle_setup_ifc                         0x08053a60   ARM Code     244  qhsusb_dcd_ch9.o(i.handle_setup_ifc)
    .data$0                                  0x08057210   Data           0  qhsusb_dcd_ch9.o(.data)
    dci_callbacks                            0x08057210   Data          12  qhsusb_dcd_ch9.o(.data)
    ..\..\core\wiredconnectivity\qhsusb\src\dci\qhsusb_dci.c 0x00000000   Number         0  qhsusb_dci.o ABSOLUTE
    i.qhsusb_dci_stall_endpoint              0x08054c88   ARM Code       0  qhsusb_dci.o(i.qhsusb_dci_stall_endpoint)
    i.qhsusb_dci_unstall_endpoint            0x08054e54   ARM Code       0  qhsusb_dci.o(i.qhsusb_dci_unstall_endpoint)
    i.qhsusb_dci_transfer_request            0x08054d44   ARM Code       0  qhsusb_dci.o(i.qhsusb_dci_transfer_request)
    i.qhsusb_dci_unconfig_endpoint           0x08054de8   ARM Code       0  qhsusb_dci.o(i.qhsusb_dci_unconfig_endpoint)
    i.qhsusb_dci_config_endpoint             0x080549c4   ARM Code       0  qhsusb_dci.o(i.qhsusb_dci_config_endpoint)
    i.qhsusb_dci_get_time_usec               0x08054aa8   ARM Code       0  qhsusb_dci.o(i.qhsusb_dci_get_time_usec)
    i.dci_handle_transfer_complete           0x08050d30   ARM Code       0  qhsusb_dci.o(i.dci_handle_transfer_complete)
    i.qhsusb_dci_is_suspended                0x08054bb0   ARM Code       0  qhsusb_dci.o(i.qhsusb_dci_is_suspended)
    i.qhsusb_dci_set_address                 0x08054c60   ARM Code       0  qhsusb_dci.o(i.qhsusb_dci_set_address)
    i.dci_handle_port_status_changed         0x08050c50   ARM Code       0  qhsusb_dci.o(i.dci_handle_port_status_changed)
    i.qhsusb_dci_poll_events                 0x08054bd8   ARM Code       0  qhsusb_dci.o(i.qhsusb_dci_poll_events)
    i.qhsusb_dci_get_speed                   0x08054a8c   ARM Code       0  qhsusb_dci.o(i.qhsusb_dci_get_speed)
    i.dci_handle_setup                       0x08050c78   ARM Code       0  qhsusb_dci.o(i.dci_handle_setup)
    i.qhsusb_dci_start_timer                 0x08054cd0   ARM Code       0  qhsusb_dci.o(i.qhsusb_dci_start_timer)
    i.qhsusb_dci_cancel_transfer             0x08054928   ARM Code       0  qhsusb_dci.o(i.qhsusb_dci_cancel_transfer)
    .bss                                     0x0807c000   Data           0  qhsusb_dci.o(.bss)
    i.dci_init_dqh_list                      0x08050dfc   ARM Code       0  qhsusb_dci.o(i.dci_init_dqh_list)
    i.transfer_data_request                  0x080551e0   ARM Code       0  qhsusb_dci.o(i.transfer_data_request)
    i.qhsusb_dci_init                        0x08054af8   ARM Code       0  qhsusb_dci.o(i.qhsusb_dci_init)
    C$debug_abbrev0                          0x00000010   Data           0  ap_armprg.o(.debug_abbrev)
    C$debug_info21                           0x00000060   Data           0  ap_armprg.o(.debug_info)
    C$debug_pubnames22                       0x00000128   Data           0  ap_armprg.o(.debug_pubnames)
    C$debug_macinfo23                        0x00000248   Data           0  ap_armprg.o(.debug_macinfo)
    C$debug_line20                           0x000027c0   Data           0  ap_armprg.o(.debug_line)
    C$debug_frame553                         0x00002808   Data           0  qhsusb_dci.o(.debug_frame)
    C$debug_frame559                         0x00002858   Data           0  qhsusb_dci.o(.debug_frame)
    C$debug_frame565                         0x000028b4   Data           0  qhsusb_dci.o(.debug_frame)
    C$debug_frame571                         0x000028f0   Data           0  qhsusb_dci.o(.debug_frame)
    C$debug_frame577                         0x0000292c   Data           0  qhsusb_dci.o(.debug_frame)
    C$debug_frame583                         0x00002968   Data           0  qhsusb_dci.o(.debug_frame)
    C$debug_frame589                         0x000029c8   Data           0  qhsusb_dci.o(.debug_frame)
    C$debug_frame595                         0x00002a10   Data           0  qhsusb_dci.o(.debug_frame)
    C$debug_frame601                         0x00002a64   Data           0  qhsusb_dci.o(.debug_frame)
    C$debug_frame613                         0x00002ab8   Data           0  qhsusb_dci.o(.debug_frame)
    C$debug_frame625                         0x00002b0c   Data           0  qhsusb_dci.o(.debug_frame)
    C$debug_frame631                         0x00002b48   Data           0  qhsusb_dci.o(.debug_frame)
    C$debug_frame637                         0x00002b84   Data           0  qhsusb_dci.o(.debug_frame)
    C$debug_frame643                         0x00002bc0   Data           0  qhsusb_dci.o(.debug_frame)
    C$debug_frame649                         0x00002c14   Data           0  qhsusb_dci.o(.debug_frame)
    C$debug_frame655                         0x00002c6c   Data           0  qhsusb_dci.o(.debug_frame)
    C$debug_frame661                         0x00002ccc   Data           0  qhsusb_dci.o(.debug_frame)
    C$debug_frame667                         0x00002d08   Data           0  qhsusb_dci.o(.debug_frame)
    C$debug_macinfo383                       0x000050cc   Data           0  qhsusb_al_hostdl.o(.debug_macinfo)
    C$debug_loc552                           0x000054c0   Data           0  qhsusb_dci.o(.debug_loc)
    C$debug_loc558                           0x00005560   Data           0  qhsusb_dci.o(.debug_loc)
    C$debug_loc564                           0x00005604   Data           0  qhsusb_dci.o(.debug_loc)
    C$debug_loc570                           0x00005654   Data           0  qhsusb_dci.o(.debug_loc)
    C$debug_loc576                           0x000056f4   Data           0  qhsusb_dci.o(.debug_loc)
    C$debug_loc582                           0x00005794   Data           0  qhsusb_dci.o(.debug_loc)
    C$debug_macinfo371                       0x000057e0   Data           0  qhsusb_al_hostdl.o(.debug_macinfo)
    C$debug_loc588                           0x00005930   Data           0  qhsusb_dci.o(.debug_loc)
    C$debug_loc594                           0x00005a10   Data           0  qhsusb_dci.o(.debug_loc)
    C$debug_loc600                           0x00005b24   Data           0  qhsusb_dci.o(.debug_loc)
    C$debug_loc612                           0x00005c30   Data           0  qhsusb_dci.o(.debug_loc)
    C$debug_loc624                           0x00005d60   Data           0  qhsusb_dci.o(.debug_loc)
    C$debug_loc630                           0x00005e04   Data           0  qhsusb_dci.o(.debug_loc)
    C$debug_loc636                           0x00005e38   Data           0  qhsusb_dci.o(.debug_loc)
    C$debug_loc642                           0x00005e7c   Data           0  qhsusb_dci.o(.debug_loc)
    C$debug_loc648                           0x00005ed0   Data           0  qhsusb_dci.o(.debug_loc)
    C$debug_loc654                           0x00005f68   Data           0  qhsusb_dci.o(.debug_loc)
    C$debug_loc660                           0x00006054   Data           0  qhsusb_dci.o(.debug_loc)
    C$debug_loc666                           0x00006090   Data           0  qhsusb_dci.o(.debug_loc)
    C$debug_macinfo5                         0x0000618c   Data           0  qhsusb_dci.o(.debug_macinfo)
    C$debug_macinfo395                       0x0000640c   Data           0  qhsusb_dci.o(.debug_macinfo)
    C$debug_pubnames418                      0x00006f3c   Data           0  qhsusb_dci.o(.debug_pubnames)
    C$debug_pubnames424                      0x00006f64   Data           0  qhsusb_dci.o(.debug_pubnames)
    C$debug_pubnames430                      0x00006f8c   Data           0  qhsusb_dci.o(.debug_pubnames)
    C$debug_pubnames436                      0x00006fb4   Data           0  qhsusb_dci.o(.debug_pubnames)
    C$debug_pubnames442                      0x00006fe8   Data           0  qhsusb_dci.o(.debug_pubnames)
    C$debug_pubnames448                      0x00007020   Data           0  qhsusb_dci.o(.debug_pubnames)
    C$debug_pubnames454                      0x0000704c   Data           0  qhsusb_dci.o(.debug_pubnames)
    C$debug_pubnames460                      0x00007078   Data           0  qhsusb_dci.o(.debug_pubnames)
    C$debug_pubnames466                      0x000070a8   Data           0  qhsusb_dci.o(.debug_pubnames)
    C$debug_pubnames472                      0x000070d8   Data           0  qhsusb_dci.o(.debug_pubnames)
    C$debug_pubnames478                      0x00007108   Data           0  qhsusb_dci.o(.debug_pubnames)
    C$debug_pubnames484                      0x0000713c   Data           0  qhsusb_dci.o(.debug_pubnames)
    C$debug_pubnames490                      0x00007170   Data           0  qhsusb_dci.o(.debug_pubnames)
    C$debug_pubnames496                      0x000071a4   Data           0  qhsusb_dci.o(.debug_pubnames)
    C$debug_pubnames502                      0x000071d0   Data           0  qhsusb_dci.o(.debug_pubnames)
    C$debug_pubnames508                      0x00007204   Data           0  qhsusb_dci.o(.debug_pubnames)
    C$debug_pubnames520                      0x00007238   Data           0  qhsusb_dci.o(.debug_pubnames)
    C$debug_pubnames532                      0x00007268   Data           0  qhsusb_dci.o(.debug_pubnames)
    C$debug_pubnames538                      0x00007298   Data           0  qhsusb_dci.o(.debug_pubnames)
    C$debug_pubnames544                      0x000072c4   Data           0  qhsusb_dci.o(.debug_pubnames)
    C$debug_pubnames550                      0x000072f4   Data           0  qhsusb_dci.o(.debug_pubnames)
    C$debug_pubnames556                      0x0000731c   Data           0  qhsusb_dci.o(.debug_pubnames)
    C$debug_pubnames562                      0x0000734c   Data           0  qhsusb_dci.o(.debug_pubnames)
    C$debug_pubnames568                      0x0000737c   Data           0  qhsusb_dci.o(.debug_pubnames)
    C$debug_pubnames574                      0x000073ac   Data           0  qhsusb_dci.o(.debug_pubnames)
    C$debug_pubnames580                      0x000073e0   Data           0  qhsusb_dci.o(.debug_pubnames)
    C$debug_pubnames586                      0x00007414   Data           0  qhsusb_dci.o(.debug_pubnames)
    C$debug_pubnames592                      0x00007448   Data           0  qhsusb_dci.o(.debug_pubnames)
    C$debug_pubnames598                      0x0000747c   Data           0  qhsusb_dci.o(.debug_pubnames)
    C$debug_pubnames610                      0x000074b0   Data           0  qhsusb_dci.o(.debug_pubnames)
    C$debug_pubnames622                      0x000074e0   Data           0  qhsusb_dci.o(.debug_pubnames)
    C$debug_pubnames628                      0x00007510   Data           0  qhsusb_dci.o(.debug_pubnames)
    C$debug_pubnames634                      0x0000753c   Data           0  qhsusb_dci.o(.debug_pubnames)
    C$debug_pubnames640                      0x0000756c   Data           0  qhsusb_dci.o(.debug_pubnames)
    C$debug_pubnames646                      0x00007594   Data           0  qhsusb_dci.o(.debug_pubnames)
    C$debug_pubnames652                      0x000075bc   Data           0  qhsusb_dci.o(.debug_pubnames)
    C$debug_pubnames658                      0x000075f0   Data           0  qhsusb_dci.o(.debug_pubnames)
    C$debug_pubnames4                        0x00007628   Data           0  qhsusb_dci.o(.debug_pubnames)
    C$debug_pubnames664                      0x000076bc   Data           0  qhsusb_dci.o(.debug_pubnames)
    C$debug_pubnames382                      0x000076e8   Data           0  qhsusb_dci.o(.debug_pubnames)
    C$debug_pubnames370                      0x00007734   Data           0  qhsusb_dci.o(.debug_pubnames)
    C$debug_pubnames394                      0x00007768   Data           0  qhsusb_dci.o(.debug_pubnames)
    C$debug_info417                          0x0001b254   Data           0  qhsusb_dci.o(.debug_info)
    C$debug_info381                          0x0001b314   Data           0  qhsusb_dci.o(.debug_info)
    C$debug_info369                          0x0001b518   Data           0  qhsusb_dci.o(.debug_info)
    C$debug_info423                          0x0001b688   Data           0  qhsusb_dci.o(.debug_info)
    C$debug_info429                          0x0001b77c   Data           0  qhsusb_dci.o(.debug_info)
    C$debug_info393                          0x0001b878   Data           0  qhsusb_dci.o(.debug_info)
    C$debug_info435                          0x0001be04   Data           0  qhsusb_dci.o(.debug_info)
    C$debug_info441                          0x0001bf58   Data           0  qhsusb_dci.o(.debug_info)
    C$debug_info447                          0x0001c038   Data           0  qhsusb_dci.o(.debug_info)
    C$debug_info453                          0x0001c0d0   Data           0  qhsusb_dci.o(.debug_info)
    C$debug_info459                          0x0001c1a4   Data           0  qhsusb_dci.o(.debug_info)
    C$debug_info465                          0x0001c288   Data           0  qhsusb_dci.o(.debug_info)
    C$debug_info471                          0x0001c340   Data           0  qhsusb_dci.o(.debug_info)
    C$debug_info477                          0x0001c42c   Data           0  qhsusb_dci.o(.debug_info)
    C$debug_info483                          0x0001c520   Data           0  qhsusb_dci.o(.debug_info)
    C$debug_info489                          0x0001c66c   Data           0  qhsusb_dci.o(.debug_info)
    C$debug_info495                          0x0001c778   Data           0  qhsusb_dci.o(.debug_info)
    C$debug_info501                          0x0001c8e8   Data           0  qhsusb_dci.o(.debug_info)
    C$debug_info507                          0x0001ca5c   Data           0  qhsusb_dci.o(.debug_info)
    C$debug_info519                          0x0001cba8   Data           0  qhsusb_dci.o(.debug_info)
    C$debug_info531                          0x0001cca4   Data           0  qhsusb_dci.o(.debug_info)
    C$debug_info537                          0x0001cd84   Data           0  qhsusb_dci.o(.debug_info)
    C$debug_info543                          0x0001ce44   Data           0  qhsusb_dci.o(.debug_info)
    C$debug_info549                          0x0001cf04   Data           0  qhsusb_dci.o(.debug_info)
    C$debug_info555                          0x0001cfcc   Data           0  qhsusb_dci.o(.debug_info)
    C$debug_info561                          0x0001d138   Data           0  qhsusb_dci.o(.debug_info)
    C$debug_info567                          0x0001d1e8   Data           0  qhsusb_dci.o(.debug_info)
    C$debug_info573                          0x0001d2d0   Data           0  qhsusb_dci.o(.debug_info)
    C$debug_info579                          0x0001d3c4   Data           0  qhsusb_dci.o(.debug_info)
    C$debug_info585                          0x0001d4f0   Data           0  qhsusb_dci.o(.debug_info)
    C$debug_info591                          0x0001d608   Data           0  qhsusb_dci.o(.debug_info)
    C$debug_info597                          0x0001d734   Data           0  qhsusb_dci.o(.debug_info)
    C$debug_info609                          0x0001d87c   Data           0  qhsusb_dci.o(.debug_info)
    C$debug_info621                          0x0001d984   Data           0  qhsusb_dci.o(.debug_info)
    C$debug_info627                          0x0001da68   Data           0  qhsusb_dci.o(.debug_info)
    C$debug_info633                          0x0001db18   Data           0  qhsusb_dci.o(.debug_info)
    C$debug_info639                          0x0001dbcc   Data           0  qhsusb_dci.o(.debug_info)
    C$debug_info645                          0x0001dca4   Data           0  qhsusb_dci.o(.debug_info)
    C$debug_info651                          0x0001dd94   Data           0  qhsusb_dci.o(.debug_info)
    C$debug_info657                          0x0001def8   Data           0  qhsusb_dci.o(.debug_info)
    C$debug_info3                            0x0001dfb8   Data           0  qhsusb_dci.o(.debug_info)
    C$debug_info663                          0x0001e128   Data           0  qhsusb_dci.o(.debug_info)
    C$debug_line380                          0x0001e528   Data           0  qhsusb_al_hostdl.o(.debug_line)
    C$debug_line368                          0x0001e638   Data           0  qhsusb_al_hostdl.o(.debug_line)
    C$debug_line548                          0x00024308   Data           0  qhsusb_dci.o(.debug_line)
    C$debug_line554                          0x00024398   Data           0  qhsusb_dci.o(.debug_line)
    C$debug_line560                          0x00024440   Data           0  qhsusb_dci.o(.debug_line)
    C$debug_line566                          0x000244c0   Data           0  qhsusb_dci.o(.debug_line)
    C$debug_line572                          0x00024544   Data           0  qhsusb_dci.o(.debug_line)
    C$debug_line578                          0x000245cc   Data           0  qhsusb_dci.o(.debug_line)
    C$debug_line584                          0x00024690   Data           0  qhsusb_dci.o(.debug_line)
    C$debug_line590                          0x00024734   Data           0  qhsusb_dci.o(.debug_line)
    C$debug_line596                          0x000247f0   Data           0  qhsusb_dci.o(.debug_line)
    C$debug_line608                          0x00024890   Data           0  qhsusb_dci.o(.debug_line)
    C$debug_line620                          0x00024954   Data           0  qhsusb_dci.o(.debug_line)
    C$debug_line626                          0x000249e8   Data           0  qhsusb_dci.o(.debug_line)
    C$debug_line632                          0x00024a58   Data           0  qhsusb_dci.o(.debug_line)
    C$debug_line638                          0x00024ac8   Data           0  qhsusb_dci.o(.debug_line)
    C$debug_line644                          0x00024b5c   Data           0  qhsusb_dci.o(.debug_line)
    C$debug_line650                          0x00024bf8   Data           0  qhsusb_dci.o(.debug_line)
    C$debug_line656                          0x00024cb0   Data           0  qhsusb_dci.o(.debug_line)
    C$debug_line2                            0x00024d28   Data           0  qhsusb_dci.o(.debug_line)
    C$debug_line662                          0x000273f8   Data           0  qhsusb_dci.o(.debug_line)
    C$debug_line392                          0x000274b0   Data           0  qhsusb_dci.o(.debug_line)
    dci_handle_port_status_changed           0x08050c50   ARM Code      32  qhsusb_dci.o(i.dci_handle_port_status_changed)
    dci_handle_setup                         0x08050c78   ARM Code     164  qhsusb_dci.o(i.dci_handle_setup)
    dci_handle_transfer_complete             0x08050d30   ARM Code     196  qhsusb_dci.o(i.dci_handle_transfer_complete)
    dci_init_dqh_list                        0x08050dfc   ARM Code     148  qhsusb_dci.o(i.dci_init_dqh_list)
    transfer_data_request                    0x080551e0   ARM Code     260  qhsusb_dci.o(i.transfer_data_request)
    .bss$2                                   0x0807c000   Data           0  qhsusb_dci.o(.bss)
    dci_usb_address                          0x0807c000   Data           1  qhsusb_dci.o(.bss)
    dci_timer_is_running                     0x0807c001   Data           2  qhsusb_dci.o(.bss)
    dci_callback_table_ptr                   0x0807c004   Data           4  qhsusb_dci.o(.bss)
    dci_setup_buffer                         0x0807c008   Data           8  qhsusb_dci.o(.bss)
    dci_dqh_list                             0x0807c800   Data         384  qhsusb_dci.o(.bss)
    dci_dtd_list                             0x0807c980   Data         192  qhsusb_dci.o(.bss)
    ..\..\core\wiredconnectivity\qhsusb\src\dci\qhsusb_dci_q1100.c 0x00000000   Number         0  qhsusb_dci_q1100.o ABSOLUTE
    .bss                                     0x0807d000   Data           0  qhsusb_dci_q1100.o(.bss)
    i.qhsusb_dci_is_wall_charger             0x08054bd0   ARM Code       0  qhsusb_dci_q1100.o(i.qhsusb_dci_is_wall_charger)
    i.dci_dcache_flush                       0x08050c48   ARM Code       0  qhsusb_dci_q1100.o(i.dci_dcache_flush)
    i.qhsusb_dci_is_attached                 0x08054b9c   ARM Code       0  qhsusb_dci_q1100.o(i.qhsusb_dci_is_attached)
    i.qhsusb_dci_connect                     0x08054a78   ARM Code       0  qhsusb_dci_q1100.o(i.qhsusb_dci_connect)
    .bss                                     0x0807d004   Data           0  qhsusb_dci_q1100.o(.bss)
    .data                                    0x0805721c   Data           0  qhsusb_dci_q1100.o(.data)
    i.dci_init_phy                           0x08050e98   ARM Code       0  qhsusb_dci_q1100.o(i.dci_init_phy)
    i.dci_dcache_inval                       0x08050c4c   ARM Code       0  qhsusb_dci_q1100.o(i.dci_dcache_inval)
    C$debug_abbrev0                          0x00000010   Data           0  ap_armprg.o(.debug_abbrev)
    C$debug_macinfo11                        0x00001524   Data           0  flash_msm.o(.debug_macinfo)
    C$debug_pubnames10                       0x000015dc   Data           0  flash_msm.o(.debug_pubnames)
    C$debug_line8                            0x000027c0   Data           0  ap_armprg.o(.debug_line)
    C$debug_frame475                         0x00002d68   Data           0  qhsusb_dci_q1100.o(.debug_frame)
    C$debug_frame481                         0x00002da4   Data           0  qhsusb_dci_q1100.o(.debug_frame)
    C$debug_frame493                         0x00002de0   Data           0  qhsusb_dci_q1100.o(.debug_frame)
    C$debug_frame505                         0x00002e1c   Data           0  qhsusb_dci_q1100.o(.debug_frame)
    C$debug_frame511                         0x00002e58   Data           0  qhsusb_dci_q1100.o(.debug_frame)
    C$debug_frame517                         0x00002e94   Data           0  qhsusb_dci_q1100.o(.debug_frame)
    C$debug_info9                            0x0000338c   Data           0  flash_msm.o(.debug_info)
    C$debug_macinfo371                       0x000050cc   Data           0  qhsusb_al_hostdl.o(.debug_macinfo)
    C$debug_macinfo359                       0x000057e0   Data           0  qhsusb_al_hostdl.o(.debug_macinfo)
    C$debug_pubnames370                      0x000060ec   Data           0  qhsusb_al_hostdl.o(.debug_pubnames)
    C$debug_loc474                           0x0000619c   Data           0  qhsusb_dci_q1100.o(.debug_loc)
    C$debug_loc480                           0x000061b0   Data           0  qhsusb_dci_q1100.o(.debug_loc)
    C$debug_loc504                           0x000061c4   Data           0  qhsusb_dci_q1100.o(.debug_loc)
    C$debug_macinfo383                       0x0000640c   Data           0  qhsusb_dci.o(.debug_macinfo)
    C$debug_macinfo5                         0x00006918   Data           0  qhsusb_dci_q1100.o(.debug_macinfo)
    C$debug_pubnames424                      0x00007a58   Data           0  qhsusb_dci_q1100.o(.debug_pubnames)
    C$debug_pubnames430                      0x00007a88   Data           0  qhsusb_dci_q1100.o(.debug_pubnames)
    C$debug_pubnames442                      0x00007abc   Data           0  qhsusb_dci_q1100.o(.debug_pubnames)
    C$debug_pubnames454                      0x00007ae8   Data           0  qhsusb_dci_q1100.o(.debug_pubnames)
    C$debug_pubnames460                      0x00007b0c   Data           0  qhsusb_dci_q1100.o(.debug_pubnames)
    C$debug_pubnames466                      0x00007b34   Data           0  qhsusb_dci_q1100.o(.debug_pubnames)
    C$debug_pubnames472                      0x00007b5c   Data           0  qhsusb_dci_q1100.o(.debug_pubnames)
    C$debug_pubnames478                      0x00007b8c   Data           0  qhsusb_dci_q1100.o(.debug_pubnames)
    C$debug_pubnames490                      0x00007bc0   Data           0  qhsusb_dci_q1100.o(.debug_pubnames)
    C$debug_pubnames502                      0x00007bec   Data           0  qhsusb_dci_q1100.o(.debug_pubnames)
    C$debug_pubnames508                      0x00007c10   Data           0  qhsusb_dci_q1100.o(.debug_pubnames)
    C$debug_pubnames4                        0x00007c38   Data           0  qhsusb_dci_q1100.o(.debug_pubnames)
    C$debug_pubnames514                      0x00007c74   Data           0  qhsusb_dci_q1100.o(.debug_pubnames)
    C$debug_pubnames382                      0x00007c9c   Data           0  qhsusb_dci_q1100.o(.debug_pubnames)
    C$debug_info369                          0x00015768   Data           0  qhsusb_al_hostdl.o(.debug_info)
    C$debug_info423                          0x0001e270   Data           0  qhsusb_dci_q1100.o(.debug_info)
    C$debug_info429                          0x0001e324   Data           0  qhsusb_dci_q1100.o(.debug_info)
    C$debug_info441                          0x0001e3e0   Data           0  qhsusb_dci_q1100.o(.debug_info)
    C$debug_info453                          0x0001e47c   Data           0  qhsusb_dci_q1100.o(.debug_info)
    C$debug_info459                          0x0001e514   Data           0  qhsusb_dci_q1100.o(.debug_info)
    C$debug_line368                          0x0001e528   Data           0  qhsusb_al_hostdl.o(.debug_line)
    C$debug_info465                          0x0001e5bc   Data           0  qhsusb_dci_q1100.o(.debug_info)
    C$debug_line356                          0x0001e638   Data           0  qhsusb_al_hostdl.o(.debug_line)
    C$debug_info471                          0x0001e664   Data           0  qhsusb_dci_q1100.o(.debug_info)
    C$debug_info477                          0x0001e700   Data           0  qhsusb_dci_q1100.o(.debug_info)
    C$debug_info489                          0x0001e79c   Data           0  qhsusb_dci_q1100.o(.debug_info)
    C$debug_info501                          0x0001e830   Data           0  qhsusb_dci_q1100.o(.debug_info)
    C$debug_info507                          0x0001e8c8   Data           0  qhsusb_dci_q1100.o(.debug_info)
    C$debug_info381                          0x0001e960   Data           0  qhsusb_dci_q1100.o(.debug_info)
    C$debug_info3                            0x0001eef8   Data           0  qhsusb_dci_q1100.o(.debug_info)
    C$debug_info513                          0x0001efcc   Data           0  qhsusb_dci_q1100.o(.debug_info)
    C$debug_line380                          0x000274b0   Data           0  qhsusb_dci.o(.debug_line)
    C$debug_line470                          0x00027540   Data           0  qhsusb_dci_q1100.o(.debug_line)
    C$debug_line476                          0x000275b8   Data           0  qhsusb_dci_q1100.o(.debug_line)
    C$debug_line488                          0x0002762c   Data           0  qhsusb_dci_q1100.o(.debug_line)
    C$debug_line500                          0x000276a0   Data           0  qhsusb_dci_q1100.o(.debug_line)
    C$debug_line506                          0x00027714   Data           0  qhsusb_dci_q1100.o(.debug_line)
    C$debug_line2                            0x00027788   Data           0  qhsusb_dci_q1100.o(.debug_line)
    C$debug_line512                          0x00029e4c   Data           0  qhsusb_dci_q1100.o(.debug_line)
    .data$0                                  0x0805721c   Data           0  qhsusb_dci_q1100.o(.data)
    .bss$2                                   0x0807d000   Data           0  qhsusb_dci_q1100.o(.bss)
    dci_is_connected                         0x0807d000   Data           1  qhsusb_dci_q1100.o(.bss)
    dci_is_attached                          0x0807d001   Data           1  qhsusb_dci_q1100.o(.bss)
    .bss$7                                   0x0807d004   Data           0  qhsusb_dci_q1100.o(.bss)
    ..\..\core\services\utils\src\crc.c      0x00000000   Number         0  crc.o ABSOLUTE
    .constdata                               0x08055b44   Data           0  crc.o(.constdata)
    i.crc_16_l_calc                          0x08050a10   ARM Code       0  crc.o(i.crc_16_l_calc)
    i.crc_16_l_step                          0x08050aa4   ARM Code       0  crc.o(i.crc_16_l_step)
    C$debug_abbrev0                          0x00000010   Data           0  ap_armprg.o(.debug_abbrev)
    C$debug_macinfo11                        0x00001524   Data           0  flash_msm.o(.debug_macinfo)
    C$debug_pubnames10                       0x000015dc   Data           0  flash_msm.o(.debug_pubnames)
    C$debug_line8                            0x000027c0   Data           0  ap_armprg.o(.debug_line)
    C$debug_frame289                         0x00002ed0   Data           0  crc.o(.debug_frame)
    C$debug_frame313                         0x00002f0c   Data           0  crc.o(.debug_frame)
    C$debug_info9                            0x0000338c   Data           0  flash_msm.o(.debug_info)
    C$debug_loc288                           0x000061e4   Data           0  crc.o(.debug_loc)
    C$debug_loc312                           0x0000627c   Data           0  crc.o(.debug_loc)
    C$debug_macinfo5                         0x00006b98   Data           0  crc.o(.debug_macinfo)
    C$debug_pubnames244                      0x00007f8c   Data           0  crc.o(.debug_pubnames)
    C$debug_pubnames268                      0x00007fb0   Data           0  crc.o(.debug_pubnames)
    C$debug_pubnames286                      0x00007fd4   Data           0  crc.o(.debug_pubnames)
    C$debug_pubnames310                      0x00007ff8   Data           0  crc.o(.debug_pubnames)
    C$debug_pubnames4                        0x0000801c   Data           0  crc.o(.debug_pubnames)
    C$debug_info243                          0x0001f064   Data           0  crc.o(.debug_info)
    C$debug_info267                          0x0001f140   Data           0  crc.o(.debug_info)
    C$debug_info285                          0x0001f22c   Data           0  crc.o(.debug_info)
    C$debug_info309                          0x0001f32c   Data           0  crc.o(.debug_info)
    C$debug_info3                            0x0001f3f4   Data           0  crc.o(.debug_info)
    C$debug_line284                          0x00029ec0   Data           0  crc.o(.debug_line)
    C$debug_line308                          0x00029f3c   Data           0  crc.o(.debug_line)
    C$debug_line2                            0x00029fa0   Data           0  crc.o(.debug_line)
    .constdata$1                             0x08055b44   Data           0  crc.o(.constdata)
    ap_msm.c                                 0x00000000   Number         0  ap_msm.o ABSOLUTE
    i.memory_init                            0x0805414c   ARM Code       0  ap_msm.o(i.memory_init)
    i.hw_id_and_init                         0x08053fac   ARM Code       0  ap_msm.o(i.hw_id_and_init)
    i.msm_reset                              0x08054184   ARM Code       0  ap_msm.o(i.msm_reset)
    i.asb_and_msm_init                       0x080509c4   ARM Code       0  ap_msm.o(i.asb_and_msm_init)
    C$debug_abbrev0                          0x00000010   Data           0  ap_armprg.o(.debug_abbrev)
    C$debug_info27                           0x00000060   Data           0  ap_armprg.o(.debug_info)
    C$debug_pubnames28                       0x00000128   Data           0  ap_armprg.o(.debug_pubnames)
    C$debug_macinfo29                        0x00000248   Data           0  ap_armprg.o(.debug_macinfo)
    C$debug_macinfo17                        0x00000bf8   Data           0  ap_armprg.o(.debug_macinfo)
    C$debug_info15                           0x00000cd0   Data           0  ap_packet.o(.debug_info)
    C$debug_macinfo707                       0x00000d98   Data           0  ap_armprg.o(.debug_macinfo)
    C$debug_pubnames16                       0x00000fb4   Data           0  ap_packet.o(.debug_pubnames)
    C$debug_line26                           0x000027c0   Data           0  ap_armprg.o(.debug_line)
    C$debug_line14                           0x00002820   Data           0  ap_armprg.o(.debug_line)
    C$debug_line704                          0x00002884   Data           0  ap_armprg.o(.debug_line)
    C$debug_frame763                         0x00002f48   Data           0  ap_msm.o(.debug_frame)
    C$debug_frame769                         0x00002f84   Data           0  ap_msm.o(.debug_frame)
    C$debug_frame775                         0x00002fc0   Data           0  ap_msm.o(.debug_frame)
    C$debug_frame781                         0x00002ffc   Data           0  ap_msm.o(.debug_frame)
    C$debug_loc780                           0x00006304   Data           0  ap_msm.o(.debug_loc)
    C$debug_pubnames724                      0x00008074   Data           0  ap_msm.o(.debug_pubnames)
    C$debug_pubnames730                      0x0000809c   Data           0  ap_msm.o(.debug_pubnames)
    C$debug_pubnames736                      0x000080c4   Data           0  ap_msm.o(.debug_pubnames)
    C$debug_pubnames742                      0x000080e8   Data           0  ap_msm.o(.debug_pubnames)
    C$debug_pubnames760                      0x00008108   Data           0  ap_msm.o(.debug_pubnames)
    C$debug_pubnames766                      0x00008130   Data           0  ap_msm.o(.debug_pubnames)
    C$debug_pubnames772                      0x00008158   Data           0  ap_msm.o(.debug_pubnames)
    C$debug_pubnames778                      0x0000817c   Data           0  ap_msm.o(.debug_pubnames)
    C$debug_info723                          0x0001f4ec   Data           0  ap_msm.o(.debug_info)
    C$debug_info729                          0x0001f544   Data           0  ap_msm.o(.debug_info)
    C$debug_info735                          0x0001f598   Data           0  ap_msm.o(.debug_info)
    C$debug_info741                          0x0001f5f4   Data           0  ap_msm.o(.debug_info)
    C$debug_info759                          0x0001f650   Data           0  ap_msm.o(.debug_info)
    C$debug_info765                          0x0001f6a8   Data           0  ap_msm.o(.debug_info)
    C$debug_info771                          0x0001f700   Data           0  ap_msm.o(.debug_info)
    C$debug_info777                          0x0001f774   Data           0  ap_msm.o(.debug_info)
    C$debug_line758                          0x0002c5f0   Data           0  ap_msm.o(.debug_line)
    C$debug_line764                          0x0002c62c   Data           0  ap_msm.o(.debug_line)
    C$debug_line770                          0x0002c668   Data           0  ap_msm.o(.debug_line)
    C$debug_line776                          0x0002c6b8   Data           0  ap_msm.o(.debug_line)
    norflash\ap_flash.c                      0x00000000   Number         0  ap_flash.o ABSOLUTE
    .constdata                               0x08056744   Data           0  ap_flash.o(.constdata)
    i.do_simple_write                        0x08050ee4   ARM Code       0  ap_flash.o(i.do_simple_write)
    i.do_read                                0x08050eb4   ARM Code       0  ap_flash.o(i.do_read)
    i.flash_device_name                      0x080511a4   ARM Code       0  ap_flash.o(i.flash_device_name)
    i.flash_device_sectors                   0x08051394   ARM Code       0  ap_flash.o(i.flash_device_sectors)
    .bss                                     0x0807d010   Data           0  ap_flash.o(.bss)
    i.flash_device_probe                     0x080511dc   ARM Code       0  ap_flash.o(i.flash_device_probe)
    i.flash_device_init_data                 0x0805117c   ARM Code       0  ap_flash.o(i.flash_device_init_data)
    i.do_stream_write                        0x08050f58   ARM Code       0  ap_flash.o(i.do_stream_write)
    .data                                    0x08057220   Data           0  ap_flash.o(.data)
    C$debug_abbrev0                          0x00000010   Data           0  ap_armprg.o(.debug_abbrev)
    C$debug_macinfo227                       0x00000bf8   Data           0  ap_armprg.o(.debug_macinfo)
    C$debug_macinfo245                       0x00000d98   Data           0  ap_armprg.o(.debug_macinfo)
    C$debug_macinfo11                        0x00001524   Data           0  flash_msm.o(.debug_macinfo)
    C$debug_pubnames10                       0x000015dc   Data           0  flash_msm.o(.debug_pubnames)
    C$debug_pubnames742                      0x000016cc   Data           0  flash_msm.o(.debug_pubnames)
    C$debug_pubnames730                      0x000019bc   Data           0  flash_msm.o(.debug_pubnames)
    C$debug_pubnames724                      0x000019f4   Data           0  flash_msm.o(.debug_pubnames)
    C$debug_macinfo743                       0x00001ee0   Data           0  flash_msm.o(.debug_macinfo)
    C$debug_pubnames226                      0x000020a0   Data           0  flash_msm.o(.debug_pubnames)
    C$debug_macinfo731                       0x00002420   Data           0  flash_msm.o(.debug_macinfo)
    C$debug_macinfo725                       0x000024e4   Data           0  flash_msm.o(.debug_macinfo)
    C$debug_macinfo719                       0x0000257c   Data           0  flash_msm.o(.debug_macinfo)
    C$debug_pubnames718                      0x00002740   Data           0  flash_common.o(.debug_pubnames)
    C$debug_line8                            0x000027c0   Data           0  ap_armprg.o(.debug_line)
    C$debug_line224                          0x00002820   Data           0  ap_armprg.o(.debug_line)
    C$debug_line242                          0x00002884   Data           0  ap_armprg.o(.debug_line)
    C$debug_frame871                         0x00003038   Data           0  ap_flash.o(.debug_frame)
    C$debug_frame877                         0x00003074   Data           0  ap_flash.o(.debug_frame)
    C$debug_frame895                         0x000030d4   Data           0  ap_flash.o(.debug_frame)
    C$debug_frame901                         0x0000313c   Data           0  ap_flash.o(.debug_frame)
    C$debug_frame907                         0x0000319c   Data           0  ap_flash.o(.debug_frame)
    C$debug_frame913                         0x000031e8   Data           0  ap_flash.o(.debug_frame)
    C$debug_frame919                         0x00003234   Data           0  ap_flash.o(.debug_frame)
    C$debug_info9                            0x0000338c   Data           0  flash_msm.o(.debug_info)
    C$debug_info741                          0x00003534   Data           0  flash_msm.o(.debug_info)
    C$debug_info729                          0x00003918   Data           0  flash_msm.o(.debug_info)
    C$debug_info723                          0x000042a0   Data           0  flash_msm.o(.debug_info)
    C$debug_loc876                           0x00006304   Data           0  ap_flash.o(.debug_loc)
    C$debug_loc894                           0x00006448   Data           0  ap_flash.o(.debug_loc)
    C$debug_info225                          0x0000646c   Data           0  flash_msm.o(.debug_info)
    C$debug_loc900                           0x00006528   Data           0  ap_flash.o(.debug_loc)
    C$debug_loc906                           0x00006714   Data           0  ap_flash.o(.debug_loc)
    C$debug_loc912                           0x000067c8   Data           0  ap_flash.o(.debug_loc)
    C$debug_loc918                           0x000067fc   Data           0  ap_flash.o(.debug_loc)
    C$debug_macinfo5                         0x00006e00   Data           0  ap_flash.o(.debug_macinfo)
    C$debug_info717                          0x00007440   Data           0  flash_common.o(.debug_info)
    C$debug_pubnames814                      0x0000819c   Data           0  ap_flash.o(.debug_pubnames)
    C$debug_pubnames820                      0x000081cc   Data           0  ap_flash.o(.debug_pubnames)
    C$debug_pubnames838                      0x000081f8   Data           0  ap_flash.o(.debug_pubnames)
    C$debug_pubnames844                      0x00008220   Data           0  ap_flash.o(.debug_pubnames)
    C$debug_line740                          0x00008224   Data           0  flash_msm.o(.debug_line)
    C$debug_pubnames850                      0x00008248   Data           0  ap_flash.o(.debug_pubnames)
    C$debug_pubnames856                      0x00008268   Data           0  ap_flash.o(.debug_pubnames)
    C$debug_line728                          0x00008278   Data           0  flash_msm.o(.debug_line)
    C$debug_pubnames862                      0x00008290   Data           0  ap_flash.o(.debug_pubnames)
    C$debug_pubnames868                      0x000082bc   Data           0  ap_flash.o(.debug_pubnames)
    C$debug_pubnames874                      0x000082ec   Data           0  ap_flash.o(.debug_pubnames)
    C$debug_line722                          0x00008300   Data           0  flash_msm.o(.debug_line)
    C$debug_pubnames892                      0x00008318   Data           0  ap_flash.o(.debug_pubnames)
    C$debug_pubnames898                      0x00008340   Data           0  ap_flash.o(.debug_pubnames)
    C$debug_pubnames904                      0x00008368   Data           0  ap_flash.o(.debug_pubnames)
    C$debug_line716                          0x00008378   Data           0  flash_msm.o(.debug_line)
    C$debug_pubnames910                      0x00008388   Data           0  ap_flash.o(.debug_pubnames)
    C$debug_pubnames4                        0x000083b0   Data           0  ap_flash.o(.debug_pubnames)
    C$debug_pubnames916                      0x00008434   Data           0  ap_flash.o(.debug_pubnames)
    C$debug_pubnames244                      0x00008460   Data           0  ap_flash.o(.debug_pubnames)
    C$debug_info813                          0x0001f7e8   Data           0  ap_flash.o(.debug_info)
    C$debug_info819                          0x0001f850   Data           0  ap_flash.o(.debug_info)
    C$debug_info837                          0x0001fa20   Data           0  ap_flash.o(.debug_info)
    C$debug_info843                          0x0001fafc   Data           0  ap_flash.o(.debug_info)
    C$debug_info849                          0x0001fca0   Data           0  ap_flash.o(.debug_info)
    C$debug_info3                            0x0001fd50   Data           0  ap_flash.o(.debug_info)
    C$debug_info855                          0x0001fe70   Data           0  ap_flash.o(.debug_info)
    C$debug_info861                          0x0001fef8   Data           0  ap_flash.o(.debug_info)
    C$debug_info867                          0x0001ffe4   Data           0  ap_flash.o(.debug_info)
    C$debug_info873                          0x00020048   Data           0  ap_flash.o(.debug_info)
    C$debug_info891                          0x00020220   Data           0  ap_flash.o(.debug_info)
    C$debug_info897                          0x00020300   Data           0  ap_flash.o(.debug_info)
    C$debug_info903                          0x0002051c   Data           0  ap_flash.o(.debug_info)
    C$debug_info909                          0x000205d8   Data           0  ap_flash.o(.debug_info)
    C$debug_info915                          0x00020670   Data           0  ap_flash.o(.debug_info)
    C$debug_info243                          0x0002075c   Data           0  ap_flash.o(.debug_info)
    C$debug_line866                          0x0002c6f4   Data           0  ap_flash.o(.debug_line)
    C$debug_line872                          0x0002c740   Data           0  ap_flash.o(.debug_line)
    C$debug_line890                          0x0002c818   Data           0  ap_flash.o(.debug_line)
    C$debug_line896                          0x0002c890   Data           0  ap_flash.o(.debug_line)
    C$debug_line902                          0x0002c95c   Data           0  ap_flash.o(.debug_line)
    C$debug_line908                          0x0002c9c0   Data           0  ap_flash.o(.debug_line)
    C$debug_line2                            0x0002ca18   Data           0  ap_flash.o(.debug_line)
    C$debug_line914                          0x0002f0c0   Data           0  ap_flash.o(.debug_line)
    .constdata$1                             0x08056744   Data           0  ap_flash.o(.constdata)
    .data$0                                  0x08057220   Data           0  ap_flash.o(.data)
    .bss$2                                   0x0807d010   Data           0  ap_flash.o(.bss)
    total_sectors                            0x0807d018   Data           4  ap_flash.o(.bss)
    flash_base_addr                          0x0807d01c   Data           4  ap_flash.o(.bss)
    flash_block                              0x0807d024   Data        6240  ap_flash.o(.bss)
    ap_id.c                                  0x00000000   Number         0  ap_id.o ABSOLUTE
    .data                                    0x08057224   Data           0  ap_id.o(.data)
    .constdata                               0x0805674c   Data           0  ap_id.o(.constdata)
    C$debug_abbrev0                          0x00000010   Data           0  ap_armprg.o(.debug_abbrev)
    C$debug_macinfo5                         0x00007074   Data           0  ap_id.o(.debug_macinfo)
    C$debug_pubnames4                        0x000084e8   Data           0  ap_id.o(.debug_pubnames)
    C$debug_info3                            0x0002082c   Data           0  ap_id.o(.debug_info)
    C$debug_line2                            0x0002f170   Data           0  ap_id.o(.debug_line)
    .constdata$6                             0x0805674c   Data           0  ap_id.o(.constdata)
    .data$5                                  0x08057224   Data           0  ap_id.o(.data)
    ../../string.c                           0x00000000   Number         0  memcmp.o ABSOLUTE
    .text                                    0x08050134   Thumb Code     0  memcmp.o(.text)
    C$debug_frame12                          0x00003288   Data           0  memcmp.o(.debug_frame)
    ../../memcpset.s                         0x00000000   Number         0  rt_memclr_w.o ABSOLUTE
    .text                                    0x0805018c   Thumb Code    92  rt_memclr_w.o(.text)
    <Anonymous Symbol>                       0x000032d0   Data          84  rt_memclr_w.o(.debug_frame)
    _loop                                    0x080501a8   ARM Code       0  rt_memclr_w.o(.text)
    ../../memcpset.s                         0x00000000   Number         0  rt_memcpy.o ABSOLUTE
    <Anonymous Symbol>                       0x00003324   Data          60  rt_memcpy.o(.debug_frame)
    .text                                    0x080501e8   Thumb Code   184  rt_memcpy.o(.text)
    _memcpy_dest_aligned                     0x08050220   ARM Code       0  rt_memcpy.o(.text)
    _memcpy_src1_loop                        0x08050240   ARM Code       0  rt_memcpy.o(.text)
    _memcpy_src2_loop                        0x08050260   ARM Code       0  rt_memcpy.o(.text)
    _memcpy_src3_loop                        0x08050280   ARM Code       0  rt_memcpy.o(.text)
    ../../memcpset.s                         0x00000000   Number         0  rt_memcpy_w.o ABSOLUTE
    .text                                    0x080502a0   Thumb Code   112  rt_memcpy_w.o(.text)
    <Anonymous Symbol>                       0x00003360   Data          84  rt_memcpy_w.o(.debug_frame)
    _memcpy_aligned_loop                     0x080502b0   ARM Code       0  rt_memcpy_w.o(.text)
    _memcpy_small                            0x080502c8   ARM Code       0  rt_memcpy_w.o(.text)
    ../../memcpset.s                         0x00000000   Number         0  rt_memmove.o ABSOLUTE
    ../../memcpset.s                         0x00000000   Number         0  rt_memset.o ABSOLUTE
    ../../division.s                         0x00000000   Number         0  rt_udiv.o ABSOLUTE
    <Anonymous Symbol>                       0x000033b4   Data          68  rt_udiv.o(.debug_frame)
    .text                                    0x08050310   Thumb Code   196  rt_udiv.o(.text)
    ../../string.c                           0x00000000   Number         0  strncmp.o ABSOLUTE
    .text                                    0x080503d4   Thumb Code     0  strncmp.o(.text)
    C$debug_frame12                          0x000033f8   Data           0  strncmp.o(.debug_frame)
    ../../angel/rt.s                         0x00000000   Number         0  rt_div0.o ABSOLUTE
    <Anonymous Symbol>                       0x00003448   Data          60  rt_div0.o(.debug_frame)
    .text                                    0x08050424   Thumb Code    16  rt_div0.o(.text)
    ../../memcpset.s                         0x00000000   Number         0  rt_memclr.o ABSOLUTE
    ../../memcpset.s                         0x00000000   Number         0  rt_memmove_w.o ABSOLUTE
    ../../angel/rt.s                         0x00000000   Number         0  rt_raise.o ABSOLUTE
    <Anonymous Symbol>                       0x00003484   Data          84  rt_raise.o(.debug_frame)
    .text                                    0x08050434   Thumb Code    32  rt_raise.o(.text)
    ../../signal.c                           0x00000000   Number         0  __raise.o ABSOLUTE
    .text                                    0x08050454   Thumb Code     0  __raise.o(.text)
    C$debug_frame15                          0x000034d8   Data           0  __raise.o(.debug_frame)
    ../../angel/sys.s                        0x00000000   Number         0  sys_exit.o ABSOLUTE
    <Anonymous Symbol>                       0x00003530   Data          68  sys_exit.o(.debug_frame)
    .text                                    0x08050498   Thumb Code    28  sys_exit.o(.text)
    ../../unhosted.s                         0x00000000   Number         0  callvia.o ABSOLUTE
    .text                                    0x080504b4   Thumb Code    16  callvia.o(.text)
    ../../signal.c                           0x00000000   Number         0  defsig.o ABSOLUTE
    .constdata                               0x08056861   Data           0  defsig.o(.constdata)
    .text                                    0x080504c4   Thumb Code     0  defsig.o(.text)
    C$debug_frame15                          0x00003574   Data           0  defsig.o(.debug_frame)
    .constdata$1                             0x08056861   Data           0  defsig.o(.constdata)
    messages@__default_signal_handler_0      0x08056861   Data          23  defsig.o(.constdata)
    ../../unhosted.s                         0x00000000   Number         0  sigdefs.o ABSOLUTE
    ../../angel/sys.s                        0x00000000   Number         0  use_semi.o ABSOLUTE
    <Anonymous Symbol>                       0x000035c8   Data          68  use_semi.o(.debug_frame)
    .text                                    0x080505dc   Thumb Code     8  use_semi.o(.text)
    ../../angel/sysapp.c                     0x00000000   Number         0  sys_wrch.o ABSOLUTE
    .text                                    0x080505e4   Thumb Code     0  sys_wrch.o(.text)
    C$debug_frame14                          0x0000360c   Data           0  sys_wrch.o(.debug_frame)

    Global Symbols

    Symbol Name                              Value     Ov Type        Size  Object(Section)

    BuildAttributes$$THUMB_ISAv2$M$E$P$PE$A:L22$X:L11$S22$IW$USESV6$~STKCKD$USESV7$~SHL$OSPACE$PRES8 0x00000000   Number         0  anon$$obj.o ABSOLUTE
    __sigvec_lookup                           - Undefined Weak Reference
    startup                                  0x08050028   ARM Code       0  ap_startup.o(BootRom)
    term_put                                 0x080500c0   Thumb Code     0  ap_startup.o(BootRom)
    term_get                                 0x080500e0   Thumb Code     0  ap_startup.o(BootRom)
    jmp_abs                                  0x08050100   Thumb Code     0  ap_startup.o(BootRom)
    memcmp                                   0x08050134   Thumb Code    86  memcmp.o(.text)
    __16__rt_memclr_w                        0x0805018c   Thumb Code    92  rt_memclr_w.o(.text)
    __rt_memclr_w                            0x08050190   ARM Code       0  rt_memclr_w.o(.text)
    _memset_w                                0x08050194   ARM Code       0  rt_memclr_w.o(.text)
    __16__rt_memcpy                          0x080501e8   Thumb Code   184  rt_memcpy.o(.text)
    __rt_memcpy                              0x080501ec   ARM Code       0  rt_memcpy.o(.text)
    __16__rt_memcpy_w                        0x080502a0   Thumb Code   112  rt_memcpy_w.o(.text)
    __rt_memcpy_w                            0x080502a4   ARM Code       0  rt_memcpy_w.o(.text)
    _memcpy_lastbytes                        0x080502f0   ARM Code       0  rt_memcpy_w.o(.text)
    __16__rt_udiv                            0x08050310   Thumb Code   196  rt_udiv.o(.text)
    __rt_udiv                                0x08050314   ARM Code       0  rt_udiv.o(.text)
    strncmp                                  0x080503d4   Thumb Code    76  strncmp.o(.text)
    __16__rt_div0                            0x08050424   Thumb Code    16  rt_div0.o(.text)
    __rt_div0                                0x08050428   ARM Code       0  rt_div0.o(.text)
    __rt_raise                               0x08050434   Thumb Code    32  rt_raise.o(.text)
    __32__rt_raise                           0x08050438   ARM Code       0  rt_raise.o(.text)
    __raise                                  0x08050454   Thumb Code    58  __raise.o(.text)
    __16_sys_exit                            0x08050498   Thumb Code    24  sys_exit.o(.text)
    _sys_exit                                0x0805049c   ARM Code       0  sys_exit.o(.text)
    __call_via_r0                            0x080504b4   Thumb Code     4  callvia.o(.text)
    __call_via_r1                            0x080504b6   Thumb Code     4  callvia.o(.text)
    __call_via_r2                            0x080504b8   Thumb Code     4  callvia.o(.text)
    __call_via_r3                            0x080504ba   Thumb Code     4  callvia.o(.text)
    __call_via_r4                            0x080504bc   Thumb Code     4  callvia.o(.text)
    __call_via_r5                            0x080504be   Thumb Code     4  callvia.o(.text)
    __call_via_r6                            0x080504c0   Thumb Code     4  callvia.o(.text)
    __call_via_r7                            0x080504c2   Thumb Code     4  callvia.o(.text)
    __default_signal_handler                 0x080504c4   Thumb Code   150  defsig.o(.text)
    __I_use_semihosting_swi                  0x080505dc   Thumb Code     8  use_semi.o(.text)
    __semihosting_swi_guard                  0x080505dc   Thumb Code     0  use_semi.o(.text)
    __32__I_use_semihosting_swi              0x080505e0   ARM Code       0  use_semi.o(.text)
    _ttywrch                                 0x080505e4   Thumb Code    18  sys_wrch.o(.text)
    __flash_intel_buffer_write               0x080505f8   ARM Code     420  flash_nor_intel.o(i.__flash_intel_buffer_write)
    __flash_intel_check_ready_status         0x080507a8   ARM Code     124  flash_nor_intel.o(i.__flash_intel_check_ready_status)
    __flash_intel_convert_to_hd_addr         0x0805082c   ARM Code      36  flash_nor_intel.o(i.__flash_intel_convert_to_hd_addr)
    __flash_intel_partial_buffer_write       0x08050854   ARM Code     316  flash_nor_intel.o(i.__flash_intel_partial_buffer_write)
    asb_and_msm_init                         0x080509c4   ARM Code       4  ap_msm.o(i.asb_and_msm_init)
    compute_reply_crc                        0x080509c8   ARM Code      64  ap_packet.o(i.compute_reply_crc)
    crc_16_l_calc                            0x08050a10   ARM Code     140  crc.o(i.crc_16_l_calc)
    crc_16_l_step                            0x08050aa4   ARM Code      68  crc.o(i.crc_16_l_step)
    dci_dcache_flush                         0x08050c48   ARM Code       4  qhsusb_dci_q1100.o(i.dci_dcache_flush)
    dci_dcache_inval                         0x08050c4c   ARM Code       4  qhsusb_dci_q1100.o(i.dci_dcache_inval)
    dci_init_phy                             0x08050e98   ARM Code      24  qhsusb_dci_q1100.o(i.dci_init_phy)
    do_read                                  0x08050eb4   ARM Code      48  ap_flash.o(i.do_read)
    do_simple_write                          0x08050ee4   ARM Code     108  ap_flash.o(i.do_simple_write)
    do_stream_write                          0x08050f58   ARM Code     492  ap_flash.o(i.do_stream_write)
    do_uart_check                            0x08051158   ARM Code       4  ap_uart.o(i.do_uart_check)
    flash_close                              0x0805116c   ARM Code      16  flash_common.o(i.flash_close)
    flash_device_init_data                   0x0805117c   ARM Code      32  ap_flash.o(i.flash_device_init_data)
    flash_device_name                        0x080511a4   ARM Code      48  ap_flash.o(i.flash_device_name)
    flash_device_probe                       0x080511dc   ARM Code     416  ap_flash.o(i.flash_device_probe)
    flash_device_sectors                     0x08051394   ARM Code     192  ap_flash.o(i.flash_device_sectors)
    flash_intel_buffer_write                 0x08051460   ARM Code     192  flash_nor_intel.o(i.flash_intel_buffer_write)
    flash_intel_configure                    0x08051528   ARM Code     264  flash_nor_intel.o(i.flash_intel_configure)
    flash_intel_copy_cfi_data                0x08051640   ARM Code      52  flash_ram.o(i.flash_intel_copy_cfi_data)
    flash_intel_erase_start                  0x08051674   ARM Code     128  flash_nor_intel.o(i.flash_intel_erase_start)
    flash_intel_erase_status                 0x080516fc   ARM Code     128  flash_nor_intel.o(i.flash_intel_erase_status)
    flash_intel_resume                       0x08051784   ARM Code      92  flash_nor_intel.o(i.flash_intel_resume)
    flash_intel_suspend                      0x080517ec   ARM Code     184  flash_nor_intel.o(i.flash_intel_suspend)
    flash_intel_word_write                   0x080518ac   ARM Code     320  flash_nor_intel.o(i.flash_intel_word_write)
    flash_msm_get_device_type                0x080519f8   ARM Code       8  flash_msm.o(i.flash_msm_get_device_type)
    flash_nor_device_probe                   0x08051a00   ARM Code     400  flash_nor.o(i.flash_nor_device_probe)
    flash_nor_find_size_for_block_addr       0x08051b9c   ARM Code      92  flash_nor_utils.o(i.flash_nor_find_size_for_block_addr)
    flash_nor_geometry_init                  0x08051bf8   ARM Code     780  flash_msm.o(i.flash_nor_geometry_init)
    flash_nor_get_partition_phy_limits       0x08051f14   ARM Code      48  flash_nor.o(i.flash_nor_get_partition_phy_limits)
    flash_nor_validate_structure             0x08051f44   ARM Code       4  flash_msm.o(i.flash_nor_validate_structure)
    flash_open                               0x08051f48   ARM Code     404  flash_common.o(i.flash_open)
    flash_peek_twice                         0x080520ec   ARM Code      52  flash_ram.o(i.flash_peek_twice)
    flash_read_cfi                           0x08052120   ARM Code     108  flash_ram.o(i.flash_read_cfi)
    flash_samsung_copy_cfi_data              0x080521f8   ARM Code      60  flash_ram.o(i.flash_samsung_copy_cfi_data)
    flash_samsung_get_id_codes               0x08052234   ARM Code      84  flash_ram.o(i.flash_samsung_get_id_codes)
    flash_spansion_copy_cfi_data             0x08052288   ARM Code      60  flash_ram.o(i.flash_spansion_copy_cfi_data)
    flash_spansion_get_id_codes              0x080522c4   ARM Code     100  flash_ram.o(i.flash_spansion_get_id_codes)
    force_xmit_reply                         0x08052328   ARM Code     240  ap_packet.o(i.force_xmit_reply)
    fs_nor_device_bad_block_check            0x08052424   ARM Code       8  flash_nor.o(i.fs_nor_device_bad_block_check)
    fs_nor_device_block_count                0x0805242c   ARM Code       8  flash_nor.o(i.fs_nor_device_block_count)
    fs_nor_device_block_size                 0x08052434   ARM Code      12  flash_nor.o(i.fs_nor_device_block_size)
    fs_nor_device_erase_block                0x08052440   ARM Code      12  flash_nor.o(i.fs_nor_device_erase_block)
    fs_nor_device_erase_block_status         0x0805244c   ARM Code      80  flash_nor.o(i.fs_nor_device_erase_block_status)
    fs_nor_device_is_page_erased             0x080524ac   ARM Code     144  flash_nor.o(i.fs_nor_device_is_page_erased)
    fs_nor_device_mark_block_bad             0x0805253c   ARM Code       8  flash_nor.o(i.fs_nor_device_mark_block_bad)
    fs_nor_device_name                       0x08052544   ARM Code       8  flash_nor.o(i.fs_nor_device_name)
    fs_nor_device_page_size                  0x0805254c   ARM Code       8  flash_nor.o(i.fs_nor_device_page_size)
    fs_nor_device_read_page                  0x08052554   ARM Code       8  flash_nor.o(i.fs_nor_device_read_page)
    fs_nor_device_read_ptr                   0x0805255c   ARM Code      68  flash_nor.o(i.fs_nor_device_read_ptr)
    fs_nor_device_resume_erase               0x080525a0   ARM Code      60  flash_nor.o(i.fs_nor_device_resume_erase)
    fs_nor_device_start_erase_block          0x080525e0   ARM Code     160  flash_nor.o(i.fs_nor_device_start_erase_block)
    fs_nor_device_suspend_erase              0x08052688   ARM Code      72  flash_nor.o(i.fs_nor_device_suspend_erase)
    fs_nor_device_write_page                 0x080526d4   ARM Code      24  flash_nor.o(i.fs_nor_device_write_page)
    fs_nor_device_write_partial_page         0x080526ec   ARM Code     144  flash_nor.o(i.fs_nor_device_write_partial_page)
    fsi_nor_device_worded_read               0x08052780   ARM Code       8  flash_nor.o(i.fsi_nor_device_worded_read)
    fsi_ram_probe                            0x08052788   ARM Code      80  flash_nor.o(i.fsi_ram_probe)
    fsi_samsung_buffer_write                 0x080527d8   ARM Code     232  flash_nor_samsung.o(i.fsi_samsung_buffer_write)
    fsi_samsung_configure                    0x080528c8   ARM Code     228  flash_nor_samsung.o(i.fsi_samsung_configure)
    fsi_samsung_erase_start                  0x080529bc   ARM Code      80  flash_nor_samsung.o(i.fsi_samsung_erase_start)
    fsi_samsung_erase_status                 0x08052a0c   ARM Code     132  flash_nor_samsung.o(i.fsi_samsung_erase_status)
    fsi_samsung_fast_byte_write              0x08052a94   ARM Code     432  flash_nor_samsung.o(i.fsi_samsung_fast_byte_write)
    fsi_samsung_resume                       0x08052c4c   ARM Code      84  flash_nor_samsung.o(i.fsi_samsung_resume)
    fsi_samsung_suspend                      0x08052ca8   ARM Code     256  flash_nor_samsung.o(i.fsi_samsung_suspend)
    fsi_samsung_unprotect_blocks             0x08052dbc   ARM Code     164  flash_nor_samsung.o(i.fsi_samsung_unprotect_blocks)
    fsi_samsung_write                        0x08052e68   ARM Code     176  flash_nor_samsung.o(i.fsi_samsung_write)
    fsi_spansion_buffer_write                0x08052f20   ARM Code     320  flash_nor_spansion.o(i.fsi_spansion_buffer_write)
    fsi_spansion_configure                   0x08053070   ARM Code     180  flash_nor_spansion.o(i.fsi_spansion_configure)
    fsi_spansion_erase_start                 0x08053130   ARM Code      80  flash_nor_spansion.o(i.fsi_spansion_erase_start)
    fsi_spansion_erase_status                0x08053180   ARM Code     132  flash_nor_spansion.o(i.fsi_spansion_erase_status)
    fsi_spansion_resume                      0x08053208   ARM Code     112  flash_nor_spansion.o(i.fsi_spansion_resume)
    fsi_spansion_suspend                     0x08053284   ARM Code     280  flash_nor_spansion.o(i.fsi_spansion_suspend)
    fsi_spansion_write                       0x080533b4   ARM Code     176  flash_nor_spansion.o(i.fsi_spansion_write)
    handle_close                             0x0805346c   ARM Code      24  ap_packet.o(i.handle_close)
    handle_hello                             0x080535c8   ARM Code     360  ap_packet.o(i.handle_hello)
    handle_invalid                           0x08053760   ARM Code      24  ap_packet.o(i.handle_invalid)
    handle_open                              0x0805377c   ARM Code      24  ap_packet.o(i.handle_open)
    handle_open_multi                        0x08053798   ARM Code      24  ap_packet.o(i.handle_open_multi)
    handle_parti_tbl                         0x080537b4   ARM Code      24  ap_packet.o(i.handle_parti_tbl)
    handle_power_off                         0x080537d0   ARM Code      48  ap_packet.o(i.handle_power_off)
    handle_reset                             0x0805380c   ARM Code      72  ap_packet.o(i.handle_reset)
    handle_security_mode                     0x08053864   ARM Code      24  ap_packet.o(i.handle_security_mode)
    handle_simple_read                       0x08053b54   ARM Code     184  ap_packet.o(i.handle_simple_read)
    handle_simple_write                      0x08053c20   ARM Code     260  ap_packet.o(i.handle_simple_write)
    handle_stream_write                      0x08053d34   ARM Code     260  ap_packet.o(i.handle_stream_write)
    handle_sync                              0x08053e48   ARM Code      76  ap_packet.o(i.handle_sync)
    hw_id_and_init                           0x08053fac   ARM Code       4  ap_msm.o(i.hw_id_and_init)
    init_interface_to_host                   0x08053fb0   ARM Code      68  ap_armprg.o(i.init_interface_to_host)
    intel_probe                              0x08054000   ARM Code     232  flash_nor_intel.o(i.intel_probe)
    main_c                                   0x080540f0   ARM Code      80  ap_armprg.o(i.main_c)
    memory_init                              0x0805414c   ARM Code      44  ap_msm.o(i.memory_init)
    msm_reset                                0x08054184   ARM Code       4  ap_msm.o(i.msm_reset)
    my_strlen                                0x08054188   ARM Code      28  ap_packet.o(i.my_strlen)
    packet_handle_incoming                   0x080541a4   ARM Code     172  ap_packet.o(i.packet_handle_incoming)
    packet_handle_incoming_buf               0x08054258   ARM Code     204  ap_packet.o(i.packet_handle_incoming_buf)
    packet_init                              0x0805432c   ARM Code     104  ap_packet.o(i.packet_init)
    packet_loop                              0x080543a0   ARM Code      44  ap_packet.o(i.packet_loop)
    packet_process                           0x080543d4   ARM Code     316  ap_packet.o(i.packet_process)
    process_current_packet                   0x0805452c   ARM Code      80  ap_packet.o(i.process_current_packet)
    process_packets_uart                     0x08054580   ARM Code      80  ap_uart.o(i.process_packets_uart)
    qhsusb_dcd_control_transfer              0x080545d8   ARM Code      72  qhsusb_dcd_ch9.o(i.qhsusb_dcd_control_transfer)
    qhsusb_dcd_init                          0x08054620   ARM Code     120  qhsusb_dcd_ch9.o(i.qhsusb_dcd_init)
    qhsusb_dcd_poll                          0x0805469c   ARM Code      16  qhsusb_dcd_ch9.o(i.qhsusb_dcd_poll)
    qhsusb_dcd_port_status_changed           0x080546ac   ARM Code     324  qhsusb_dcd_ch9.o(i.qhsusb_dcd_port_status_changed)
    qhsusb_dcd_set_config                    0x080547f4   ARM Code     308  qhsusb_dcd_ch9.o(i.qhsusb_dcd_set_config)
    qhsusb_dci_cancel_transfer               0x08054928   ARM Code     148  qhsusb_dci.o(i.qhsusb_dci_cancel_transfer)
    qhsusb_dci_config_endpoint               0x080549c4   ARM Code     164  qhsusb_dci.o(i.qhsusb_dci_config_endpoint)
    qhsusb_dci_connect                       0x08054a78   ARM Code      16  qhsusb_dci_q1100.o(i.qhsusb_dci_connect)
    qhsusb_dci_get_speed                     0x08054a8c   ARM Code      24  qhsusb_dci.o(i.qhsusb_dci_get_speed)
    qhsusb_dci_get_time_usec                 0x08054aa8   ARM Code      76  qhsusb_dci.o(i.qhsusb_dci_get_time_usec)
    qhsusb_dci_init                          0x08054af8   ARM Code     148  qhsusb_dci.o(i.qhsusb_dci_init)
    qhsusb_dci_is_attached                   0x08054b9c   ARM Code      16  qhsusb_dci_q1100.o(i.qhsusb_dci_is_attached)
    qhsusb_dci_is_suspended                  0x08054bb0   ARM Code      28  qhsusb_dci.o(i.qhsusb_dci_is_suspended)
    qhsusb_dci_is_wall_charger               0x08054bd0   ARM Code       8  qhsusb_dci_q1100.o(i.qhsusb_dci_is_wall_charger)
    qhsusb_dci_poll_events                   0x08054bd8   ARM Code     124  qhsusb_dci.o(i.qhsusb_dci_poll_events)
    qhsusb_dci_set_address                   0x08054c60   ARM Code      32  qhsusb_dci.o(i.qhsusb_dci_set_address)
    qhsusb_dci_stall_endpoint                0x08054c88   ARM Code      64  qhsusb_dci.o(i.qhsusb_dci_stall_endpoint)
    qhsusb_dci_start_timer                   0x08054cd0   ARM Code     108  qhsusb_dci.o(i.qhsusb_dci_start_timer)
    qhsusb_dci_transfer_request              0x08054d44   ARM Code     156  qhsusb_dci.o(i.qhsusb_dci_transfer_request)
    qhsusb_dci_unconfig_endpoint             0x08054de8   ARM Code     100  qhsusb_dci.o(i.qhsusb_dci_unconfig_endpoint)
    qhsusb_dci_unstall_endpoint              0x08054e54   ARM Code      60  qhsusb_dci.o(i.qhsusb_dci_unstall_endpoint)
    qhsusb_fd_hdlc_init                      0x08054e98   ARM Code     232  qhsusb_fd_hdlc.o(i.qhsusb_fd_hdlc_init)
    qhsusb_fd_hdlc_is_tx_active              0x08054fb4   ARM Code      36  qhsusb_fd_hdlc.o(i.qhsusb_fd_hdlc_is_tx_active)
    qhsusb_fd_hdlc_rx_completed              0x08054fe0   ARM Code      16  qhsusb_fd_hdlc.o(i.qhsusb_fd_hdlc_rx_completed)
    qhsusb_fd_hdlc_tx_byte                   0x08054ff0   ARM Code     104  qhsusb_fd_hdlc.o(i.qhsusb_fd_hdlc_tx_byte)
    qhsusb_submit_urb                        0x08055060   ARM Code      84  qhsusb_dcd_ch9.o(i.qhsusb_submit_urb)
    rex_int_free                             0x080550b8   ARM Code       8  flash_os_none.o(i.rex_int_free)
    rex_int_lock                             0x080550c0   ARM Code       8  flash_os_none.o(i.rex_int_lock)
    samsung_nor_probe                        0x080550c8   ARM Code     136  flash_nor_samsung.o(i.samsung_nor_probe)
    spansion_probe                           0x08055154   ARM Code     136  flash_nor_spansion.o(i.spansion_probe)
    transmit_error                           0x080552f4   ARM Code     120  ap_packet.o(i.transmit_error)
    uart_get_data_from_device                0x08055374   ARM Code      56  ap_uart.o(i.uart_get_data_from_device)
    uart_packet_init                         0x080553b4   ARM Code      36  ap_uart.o(i.uart_packet_init)
    uartdm_active                            0x080553e0   ARM Code      72  ap_uart.o(i.uartdm_active)
    uartdm_drain                             0x08055428   ARM Code      32  ap_uart.o(i.uartdm_drain)
    uartdm_init                              0x0805544c   ARM Code      52  ap_uart.o(i.uartdm_init)
    uartdm_receive_bytes                     0x080554ac   ARM Code     632  ap_uart.o(i.uartdm_receive_bytes)
    uartdm_start_receiving_data              0x08055744   ARM Code      32  ap_uart.o(i.uartdm_start_receiving_data)
    uartdm_transmit_byte                     0x08055764   ARM Code      64  ap_uart.o(i.uartdm_transmit_byte)
    xmit_log_message                         0x08055870   ARM Code      88  ap_packet.o(i.xmit_log_message)
    digs                                     0x0805590e   Data          17  ap_packet.o(.constdata)
    crc30_table                              0x08055b44   Data        1024  crc.o(.constdata)
    crc16_table                              0x08055f44   Data         512  crc.o(.constdata)
    crc_16_l_table                           0x08056144   Data         512  crc.o(.constdata)
    crc32_table                              0x08056344   Data        1024  crc.o(.constdata)
    size_msg_fixed                           0x08056990   Data           4  ap_packet.o(.data)
    size_msg_overrun                         0x08056994   Data           4  ap_packet.o(.data)
    packet_handler                           0x08056998   Data         112  ap_packet.o(.data)
    spansion_parts                           0x08056a08   Data           8  flash_msm.o(.data)
    samsung_parts                            0x08056a10   Data          12  flash_msm.o(.data)
    intel_parts                              0x08056a1c   Data          12  flash_msm.o(.data)
    flash_nor_probe_table                    0x08056a28   Data          32  flash_msm.o(.data)
    flash_nor_ops                            0x08056a48   Data         144  flash_nor.o(.data)
    cfi_copy_functions                       0x08056ad8   Data          12  flash_ram.o(.data)
    wait_amd_count                           0x08056aec   Data           4  flash_nor_spansion.o(.data)
    flash_spansion_op_functions              0x08056af0   Data          40  flash_nor_spansion.o(.data)
    S29WS512P_geometry                       0x08056b18   Data         180  flash_nor_spansion.o(.data)
    S29WS512P                                0x08056bcc   Data          40  flash_nor_spansion.o(.data)
    flash_samsung_op_functions               0x08056bfc   Data          40  flash_nor_samsung.o(.data)
    flash_samsung_op_word_write_functions    0x08056c24   Data          40  flash_nor_samsung.o(.data)
    K5N5629ABM_geometry                      0x08056c4c   Data         180  flash_nor_samsung.o(.data)
    K5N6433ABM_geometry                      0x08056d00   Data         180  flash_nor_samsung.o(.data)
    K5N5629ABM                               0x08056db4   Data          40  flash_nor_samsung.o(.data)
    K5N6433ABM                               0x08056ddc   Data          40  flash_nor_samsung.o(.data)
    flash_intel_op_functions_W18             0x08056e04   Data          40  flash_nor_intel.o(.data)
    flash_intel_op_functions_M18             0x08056e2c   Data          40  flash_nor_intel.o(.data)
    Intel_64W18_geometry                     0x08056e54   Data         180  flash_nor_intel.o(.data)
    Intel_512M18_geometry                    0x08056f08   Data         180  flash_nor_intel.o(.data)
    Intel_64W18_ADMux                        0x08056fbc   Data          40  flash_nor_intel.o(.data)
    Intel_512M18_ADMux                       0x08056fe4   Data          40  flash_nor_intel.o(.data)
    uart_dispatch_table                      0x0805700c   Data          20  ap_uart.o(.data)
    usb_dispatch_table                       0x0805703c   Data          20  qhsusb_al_hostdl.o(.data)
    dci_core_base_address                    0x0805721c   Data           4  qhsusb_dci_q1100.o(.data)
    flash_dev_type                           0x08057220   Data           1  ap_flash.o(.data)
    id_tbl                                   0x08057224   Data           4  ap_id.o(.data)
    Image$$APP_RAM$$ZI$$Base                 0x08057228   Number         0  anon$$obj.o ABSOLUTE
    disptbl                                  0x08057228   Data           4  ap_armprg.o(.bss)
    svc_stack                                0x0805722c   Data       16384  ap_armprg.o(.bss)
    irq_stack                                0x0805b22c   Data        2048  ap_armprg.o(.bss)
    abort_stack                              0x0805ba2c   Data         256  ap_armprg.o(.bss)
    undef_stack                              0x0805bb2c   Data         256  ap_armprg.o(.bss)
    process_packet_flag                      0x0805bc2d   Data           1  ap_packet.o(.bss)
    reply_length                             0x0805bc2e   Data           2  ap_packet.o(.bss)
    free_list                                0x0805bc34   Data           4  ap_packet.o(.bss)
    waiting                                  0x0805bc38   Data           4  ap_packet.o(.bss)
    waiting_last                             0x0805bc3c   Data           4  ap_packet.o(.bss)
    current                                  0x0805bc40   Data           4  ap_packet.o(.bss)
    packet_data                              0x0805bc44   Data       104000  ap_packet.o(.bss)
    aligned_buffer                           0x08075284   Data        1028  ap_packet.o(.bss)
    reply_buffer                             0x08075688   Data        2048  ap_packet.o(.bss)
    size_msg                                 0x08075e88   Data          64  ap_packet.o(.bss)
    flash_geometry_data                      0x08075ec8   Data         180  flash_msm.o(.bss)
    cfi_data                                 0x08075f7c   Data         320  flash_msm.o(.bss)
    clk_mclk_freq_mhz                        0x080760bc   Data           4  flash_msm.o(.bss)
    flashi_probe_addr                        0x080762a8   Data           4  flash_nor.o(.bss)
    byte_cnt                                 0x08076b48   Data           4  ap_uart.o(.bss)
    uartdm_rx_status                         0x08076b4c   Data          20  ap_uart.o(.bss)
    pack_data                                0x08076b60   Data        8212  ap_uart.o(.bss)
    dci_core_info                            0x0807d004   Data          12  qhsusb_dci_q1100.o(.bss)
    nor_device                               0x0807d010   Data           4  ap_flash.o(.bss)
    hostdl_dev                               0x0807d014   Data           4  ap_flash.o(.bss)
    curr_erase_sector_bsize                  0x0807d020   Data           4  ap_flash.o(.bss)
    Image$$APP_RAM$$ZI$$Limit                0x0807e884   Number         0  anon$$obj.o ABSOLUTE
    __SIG_IGN                                0xfffffffd   Number         0  sigdefs.o ABSOLUTE
    __SIG_ERR                                0xfffffffe   Number         0  sigdefs.o ABSOLUTE
    __SIG_DFL                                0xffffffff   Number         0  sigdefs.o ABSOLUTE


================================================================================

Memory Map of the image

  Image Entry point : 0x08050028

  Load Region RAM (Base: 0x08050028, Size: 0x00007200, Max: 0xffffffff, ABSOLUTE)

    Execution Region CODE (Base: 0x08050028, Size: 0x000058a8, Max: 0xffffffff, ABSOLUTE)

    Base Addr    Size         Type   Attr  Idx  E Section Name        Object

    0x08050028   0x0000010c   Code   RO     1   * BootRom             ap_startup.o
    0x08050134   0x00000058   Code   RO  2718     .text               memcmp.o(lib\armlib\c_t__un.l)
    0x0805018c   0x0000005c   Code   RO  2720     .text               rt_memclr_w.o(lib\armlib\c_t__un.l)
    0x080501e8   0x000000b8   Code   RO  2722     .text               rt_memcpy.o(lib\armlib\c_t__un.l)
    0x080502a0   0x00000070   Code   RO  2724     .text               rt_memcpy_w.o(lib\armlib\c_t__un.l)
    0x08050310   0x000000c4   Code   RO  2730     .text               rt_udiv.o(lib\armlib\c_t__un.l)
    0x080503d4   0x00000050   Code   RO  2732     .text               strncmp.o(lib\armlib\c_t__un.l)
    0x08050424   0x00000010   Code   RO  2734     .text               rt_div0.o(lib\armlib\c_t__un.l)
    0x08050434   0x00000020   Code   RO  2740     .text               rt_raise.o(lib\armlib\c_t__un.l)
    0x08050454   0x00000044   Code   RO  2742     .text               __raise.o(lib\armlib\c_t__un.l)
    0x08050498   0x0000001c   Code   RO  2744     .text               sys_exit.o(lib\armlib\c_t__un.l)
    0x080504b4   0x00000010   Code   RO  2746     .text               callvia.o(lib\armlib\c_t__un.l)
    0x080504c4   0x00000118   Code   RO  2747     .text               defsig.o(lib\armlib\c_t__un.l)
    0x080505dc   0x00000008   Code   RO  2751     .text               use_semi.o(lib\armlib\c_t__un.l)
    0x080505e4   0x00000014   Code   RO  2753     .text               sys_wrch.o(lib\armlib\c_t__un.l)
    0x080505f8   0x000001b0   Code   RO  1367     i.__flash_intel_buffer_write  flash_nor_intel.o
    0x080507a8   0x00000084   Code   RO  1366     i.__flash_intel_check_ready_status  flash_nor_intel.o
    0x0805082c   0x00000028   Code   RO  1371     i.__flash_intel_convert_to_hd_addr  flash_nor_intel.o
    0x08050854   0x00000144   Code   RO  1368     i.__flash_intel_partial_buffer_write  flash_nor_intel.o
    0x08050998   0x0000002c   Code   RO  1859     i.ap_rx_complete    qhsusb_al_hostdl.o
    0x080509c4   0x00000004   Code   RO  2569     i.asb_and_msm_init  ap_msm.o
    0x080509c8   0x00000048   Code   RO   287     i.compute_reply_crc  ap_packet.o
    0x08050a10   0x00000094   Code   RO  2499     i.crc_16_l_calc     crc.o
    0x08050aa4   0x00000048   Code   RO  2503     i.crc_16_l_step     crc.o
    0x08050aec   0x00000038   Code   RO  2034     i.dcd_callback_reset  qhsusb_dcd_ch9.o
    0x08050b24   0x00000088   Code   RO  2035     i.dcd_callback_setup  qhsusb_dcd_ch9.o
    0x08050bac   0x00000010   Code   RO  2041     i.dcd_control_reply  qhsusb_dcd_ch9.o
    0x08050bbc   0x00000010   Code   RO  2039     i.dcd_notify        qhsusb_dcd_ch9.o
    0x08050bcc   0x0000007c   Code   RO  2040     i.dcd_set_interface  qhsusb_dcd_ch9.o
    0x08050c48   0x00000004   Code   RO  2420     i.dci_dcache_flush  qhsusb_dci_q1100.o
    0x08050c4c   0x00000004   Code   RO  2419     i.dci_dcache_inval  qhsusb_dci_q1100.o
    0x08050c50   0x00000028   Code   RO  2229     i.dci_handle_port_status_changed  qhsusb_dci.o
    0x08050c78   0x000000b8   Code   RO  2227     i.dci_handle_setup  qhsusb_dci.o
    0x08050d30   0x000000cc   Code   RO  2228     i.dci_handle_transfer_complete  qhsusb_dci.o
    0x08050dfc   0x0000009c   Code   RO  2226     i.dci_init_dqh_list  qhsusb_dci.o
    0x08050e98   0x0000001c   Code   RO  2418     i.dci_init_phy      qhsusb_dci_q1100.o
    0x08050eb4   0x00000030   Code   RO  2629     i.do_read           ap_flash.o
    0x08050ee4   0x00000074   Code   RO  2627     i.do_simple_write   ap_flash.o
    0x08050f58   0x00000200   Code   RO  2628     i.do_stream_write   ap_flash.o
    0x08051158   0x00000004   Code   RO  1733     i.do_uart_check     ap_uart.o
    0x0805115c   0x00000010   Code   RO  1854     i.do_usb_check      qhsusb_al_hostdl.o
    0x0805116c   0x00000010   Code   RO   639     i.flash_close       flash_common.o
    0x0805117c   0x00000028   Code   RO  2623     i.flash_device_init_data  ap_flash.o
    0x080511a4   0x00000038   Code   RO  2630     i.flash_device_name  ap_flash.o
    0x080511dc   0x000001b8   Code   RO  2624     i.flash_device_probe  ap_flash.o
    0x08051394   0x000000cc   Code   RO  2631     i.flash_device_sectors  ap_flash.o
    0x08051460   0x000000c8   Code   RO  1374     i.flash_intel_buffer_write  flash_nor_intel.o
    0x08051528   0x00000118   Code   RO  1377     i.flash_intel_configure  flash_nor_intel.o
    0x08051640   0x00000034   Code   RO   999     i.flash_intel_copy_cfi_data  flash_ram.o
    0x08051674   0x00000088   Code   RO  1372     i.flash_intel_erase_start  flash_nor_intel.o
    0x080516fc   0x00000088   Code   RO  1373     i.flash_intel_erase_status  flash_nor_intel.o
    0x08051784   0x00000068   Code   RO  1376     i.flash_intel_resume  flash_nor_intel.o
    0x080517ec   0x000000c0   Code   RO  1375     i.flash_intel_suspend  flash_nor_intel.o
    0x080518ac   0x0000014c   Code   RO  1369     i.flash_intel_word_write  flash_nor_intel.o
    0x080519f8   0x00000008   Code   RO   529     i.flash_msm_get_device_type  flash_msm.o
    0x08051a00   0x0000019c   Code   RO   763     i.flash_nor_device_probe  flash_nor.o
    0x08051b9c   0x0000005c   Code   RO  1530     i.flash_nor_find_size_for_block_addr  flash_nor_utils.o
    0x08051bf8   0x0000031c   Code   RO   528     i.flash_nor_geometry_init  flash_msm.o
    0x08051f14   0x00000030   Code   RO   782     i.flash_nor_get_partition_phy_limits  flash_nor.o
    0x08051f44   0x00000004   Code   RO   527     i.flash_nor_validate_structure  flash_msm.o
    0x08051f48   0x000001a4   Code   RO   638     i.flash_open        flash_common.o
    0x080520ec   0x00000034   Code   RO   994     i.flash_peek_twice  flash_ram.o
    0x08052120   0x00000070   Code   RO  1002     i.flash_read_cfi    flash_ram.o
    0x08052190   0x00000068   Code   RO   640     i.flash_release_device_structure  flash_common.o
    0x080521f8   0x0000003c   Code   RO  1001     i.flash_samsung_copy_cfi_data  flash_ram.o
    0x08052234   0x00000054   Code   RO   996     i.flash_samsung_get_id_codes  flash_ram.o
    0x08052288   0x0000003c   Code   RO  1000     i.flash_spansion_copy_cfi_data  flash_ram.o
    0x080522c4   0x00000064   Code   RO   995     i.flash_spansion_get_id_codes  flash_ram.o
    0x08052328   0x000000fc   Code   RO   286     i.force_xmit_reply  ap_packet.o
    0x08052424   0x00000008   Code   RO   771     i.fs_nor_device_bad_block_check  flash_nor.o
    0x0805242c   0x00000008   Code   RO   778     i.fs_nor_device_block_count  flash_nor.o
    0x08052434   0x0000000c   Code   RO   779     i.fs_nor_device_block_size  flash_nor.o
    0x08052440   0x0000000c   Code   RO   766     i.fs_nor_device_erase_block  flash_nor.o
    0x0805244c   0x00000054   Code   RO   776     i.fs_nor_device_erase_block_status  flash_nor.o
    0x080524a0   0x0000000c   Code   RO   781     i.fs_nor_device_get_write_style  flash_nor.o
    0x080524ac   0x00000090   Code   RO   767     i.fs_nor_device_is_page_erased  flash_nor.o
    0x0805253c   0x00000008   Code   RO   772     i.fs_nor_device_mark_block_bad  flash_nor.o
    0x08052544   0x00000008   Code   RO   777     i.fs_nor_device_name  flash_nor.o
    0x0805254c   0x00000008   Code   RO   780     i.fs_nor_device_page_size  flash_nor.o
    0x08052554   0x00000008   Code   RO   770     i.fs_nor_device_read_page  flash_nor.o
    0x0805255c   0x00000044   Code   RO   768     i.fs_nor_device_read_ptr  flash_nor.o
    0x080525a0   0x00000040   Code   RO   775     i.fs_nor_device_resume_erase  flash_nor.o
    0x080525e0   0x000000a8   Code   RO   773     i.fs_nor_device_start_erase_block  flash_nor.o
    0x08052688   0x0000004c   Code   RO   774     i.fs_nor_device_suspend_erase  flash_nor.o
    0x080526d4   0x00000018   Code   RO   765     i.fs_nor_device_write_page  flash_nor.o
    0x080526ec   0x00000094   Code   RO   764     i.fs_nor_device_write_partial_page  flash_nor.o
    0x08052780   0x00000008   Code   RO   769     i.fsi_nor_device_worded_read  flash_nor.o
    0x08052788   0x00000050   Code   RO   762     i.fsi_ram_probe     flash_nor.o
    0x080527d8   0x000000f0   Code   RO  1255     i.fsi_samsung_buffer_write  flash_nor_samsung.o
    0x080528c8   0x000000f4   Code   RO  1254     i.fsi_samsung_configure  flash_nor_samsung.o
    0x080529bc   0x00000050   Code   RO  1249     i.fsi_samsung_erase_start  flash_nor_samsung.o
    0x08052a0c   0x00000088   Code   RO  1250     i.fsi_samsung_erase_status  flash_nor_samsung.o
    0x08052a94   0x000001b8   Code   RO  1258     i.fsi_samsung_fast_byte_write  flash_nor_samsung.o
    0x08052c4c   0x0000005c   Code   RO  1252     i.fsi_samsung_resume  flash_nor_samsung.o
    0x08052ca8   0x00000114   Code   RO  1251     i.fsi_samsung_suspend  flash_nor_samsung.o
    0x08052dbc   0x000000ac   Code   RO  1253     i.fsi_samsung_unprotect_blocks  flash_nor_samsung.o
    0x08052e68   0x000000b8   Code   RO  1256     i.fsi_samsung_write  flash_nor_samsung.o
    0x08052f20   0x00000150   Code   RO  1114     i.fsi_spansion_buffer_write  flash_nor_spansion.o
    0x08053070   0x000000c0   Code   RO  1113     i.fsi_spansion_configure  flash_nor_spansion.o
    0x08053130   0x00000050   Code   RO  1109     i.fsi_spansion_erase_start  flash_nor_spansion.o
    0x08053180   0x00000088   Code   RO  1110     i.fsi_spansion_erase_status  flash_nor_spansion.o
    0x08053208   0x0000007c   Code   RO  1112     i.fsi_spansion_resume  flash_nor_spansion.o
    0x08053284   0x00000130   Code   RO  1111     i.fsi_spansion_suspend  flash_nor_spansion.o
    0x080533b4   0x000000b8   Code   RO  1115     i.fsi_spansion_write  flash_nor_spansion.o
    0x0805346c   0x0000001c   Code   RO   303     i.handle_close      ap_packet.o
    0x08053488   0x00000054   Code   RO  2046     i.handle_ep_halt    qhsusb_dcd_ch9.o
    0x080534dc   0x000000ec   Code   RO  2045     i.handle_get_descriptor  qhsusb_dcd_ch9.o
    0x080535c8   0x00000198   Code   RO   295     i.handle_hello      ap_packet.o
    0x08053760   0x0000001c   Code   RO   294     i.handle_invalid    ap_packet.o
    0x0805377c   0x0000001c   Code   RO   302     i.handle_open       ap_packet.o
    0x08053798   0x0000001c   Code   RO   306     i.handle_open_multi  ap_packet.o
    0x080537b4   0x0000001c   Code   RO   305     i.handle_parti_tbl  ap_packet.o
    0x080537d0   0x0000003c   Code   RO   301     i.handle_power_off  ap_packet.o
    0x0805380c   0x00000058   Code   RO   297     i.handle_reset      ap_packet.o
    0x08053864   0x0000001c   Code   RO   304     i.handle_security_mode  ap_packet.o
    0x08053880   0x000000f4   Code   RO  2042     i.handle_setup_dev  qhsusb_dcd_ch9.o
    0x08053974   0x000000ec   Code   RO  2044     i.handle_setup_ep   qhsusb_dcd_ch9.o
    0x08053a60   0x000000f4   Code   RO  2043     i.handle_setup_ifc  qhsusb_dcd_ch9.o
    0x08053b54   0x000000cc   Code   RO   296     i.handle_simple_read  ap_packet.o
    0x08053c20   0x00000114   Code   RO   298     i.handle_simple_write  ap_packet.o
    0x08053d34   0x00000114   Code   RO   299     i.handle_stream_write  ap_packet.o
    0x08053e48   0x00000054   Code   RO   300     i.handle_sync       ap_packet.o
    0x08053e9c   0x00000080   Code   RO  1940     i.hdlc_init_rx      qhsusb_fd_hdlc.o
    0x08053f1c   0x0000005c   Code   RO  1934     i.hdlc_notify_cb    qhsusb_fd_hdlc.o
    0x08053f78   0x00000028   Code   RO  1942     i.hdlc_rx_callback  qhsusb_fd_hdlc.o
    0x08053fa0   0x0000000c   Code   RO  1941     i.hdlc_tx_callback  qhsusb_fd_hdlc.o
    0x08053fac   0x00000004   Code   RO  2570     i.hw_id_and_init    ap_msm.o
    0x08053fb0   0x00000050   Code   RO     5     i.init_interface_to_host  ap_armprg.o
    0x08054000   0x000000f0   Code   RO  1370     i.intel_probe       flash_nor_intel.o
    0x080540f0   0x0000005c   Code   RO     6     i.main_c            ap_armprg.o
    0x0805414c   0x00000038   Code   RO  2571     i.memory_init       ap_msm.o
    0x08054184   0x00000004   Code   RO  2572     i.msm_reset         ap_msm.o
    0x08054188   0x0000001c   Code   RO   288     i.my_strlen         ap_packet.o
    0x080541a4   0x000000b4   Code   RO   290     i.packet_handle_incoming  ap_packet.o
    0x08054258   0x000000d4   Code   RO   291     i.packet_handle_incoming_buf  ap_packet.o
    0x0805432c   0x00000074   Code   RO   284     i.packet_init       ap_packet.o
    0x080543a0   0x00000034   Code   RO   308     i.packet_loop       ap_packet.o
    0x080543d4   0x00000158   Code   RO   307     i.packet_process    ap_packet.o
    0x0805452c   0x00000054   Code   RO   285     i.process_current_packet  ap_packet.o
    0x08054580   0x00000058   Code   RO  1732     i.process_packets_uart  ap_uart.o
    0x080545d8   0x00000048   Code   RO  2032     i.qhsusb_dcd_control_transfer  qhsusb_dcd_ch9.o
    0x08054620   0x0000007c   Code   RO  2036     i.qhsusb_dcd_init   qhsusb_dcd_ch9.o
    0x0805469c   0x00000010   Code   RO  2037     i.qhsusb_dcd_poll   qhsusb_dcd_ch9.o
    0x080546ac   0x00000148   Code   RO  2033     i.qhsusb_dcd_port_status_changed  qhsusb_dcd_ch9.o
    0x080547f4   0x00000134   Code   RO  2030     i.qhsusb_dcd_set_config  qhsusb_dcd_ch9.o
    0x08054928   0x0000009c   Code   RO  2219     i.qhsusb_dci_cancel_transfer  qhsusb_dci.o
    0x080549c4   0x000000b4   Code   RO  2216     i.qhsusb_dci_config_endpoint  qhsusb_dci.o
    0x08054a78   0x00000014   Code   RO  2416     i.qhsusb_dci_connect  qhsusb_dci_q1100.o
    0x08054a8c   0x0000001c   Code   RO  2224     i.qhsusb_dci_get_speed  qhsusb_dci.o
    0x08054aa8   0x00000050   Code   RO  2223     i.qhsusb_dci_get_time_usec  qhsusb_dci.o
    0x08054af8   0x000000a4   Code   RO  2211     i.qhsusb_dci_init   qhsusb_dci.o
    0x08054b9c   0x00000014   Code   RO  2413     i.qhsusb_dci_is_attached  qhsusb_dci_q1100.o
    0x08054bb0   0x00000020   Code   RO  2225     i.qhsusb_dci_is_suspended  qhsusb_dci.o
    0x08054bd0   0x00000008   Code   RO  2414     i.qhsusb_dci_is_wall_charger  qhsusb_dci_q1100.o
    0x08054bd8   0x00000088   Code   RO  2212     i.qhsusb_dci_poll_events  qhsusb_dci.o
    0x08054c60   0x00000028   Code   RO  2213     i.qhsusb_dci_set_address  qhsusb_dci.o
    0x08054c88   0x00000048   Code   RO  2214     i.qhsusb_dci_stall_endpoint  qhsusb_dci.o
    0x08054cd0   0x00000074   Code   RO  2221     i.qhsusb_dci_start_timer  qhsusb_dci.o
    0x08054d44   0x000000a4   Code   RO  2218     i.qhsusb_dci_transfer_request  qhsusb_dci.o
    0x08054de8   0x0000006c   Code   RO  2217     i.qhsusb_dci_unconfig_endpoint  qhsusb_dci.o
    0x08054e54   0x00000044   Code   RO  2215     i.qhsusb_dci_unstall_endpoint  qhsusb_dci.o
    0x08054e98   0x0000011c   Code   RO  1935     i.qhsusb_fd_hdlc_init  qhsusb_fd_hdlc.o
    0x08054fb4   0x0000002c   Code   RO  1938     i.qhsusb_fd_hdlc_is_tx_active  qhsusb_fd_hdlc.o
    0x08054fe0   0x00000010   Code   RO  1939     i.qhsusb_fd_hdlc_rx_completed  qhsusb_fd_hdlc.o
    0x08054ff0   0x00000070   Code   RO  1937     i.qhsusb_fd_hdlc_tx_byte  qhsusb_fd_hdlc.o
    0x08055060   0x00000058   Code   RO  2031     i.qhsusb_submit_urb  qhsusb_dcd_ch9.o
    0x080550b8   0x00000008   Code   RO   698     i.rex_int_free      flash_os_none.o
    0x080550c0   0x00000008   Code   RO   697     i.rex_int_lock      flash_os_none.o
    0x080550c8   0x0000008c   Code   RO  1248     i.samsung_nor_probe  flash_nor_samsung.o
    0x08055154   0x0000008c   Code   RO  1107     i.spansion_probe    flash_nor_spansion.o
    0x080551e0   0x00000114   Code   RO  2230     i.transfer_data_request  qhsusb_dci.o
    0x080552f4   0x00000080   Code   RO   293     i.transmit_error    ap_packet.o
    0x08055374   0x00000040   Code   RO  1731     i.uart_get_data_from_device  ap_uart.o
    0x080553b4   0x0000002c   Code   RO  1730     i.uart_packet_init  ap_uart.o
    0x080553e0   0x00000048   Code   RO  1723     i.uartdm_active     ap_uart.o
    0x08055428   0x00000024   Code   RO  1722     i.uartdm_drain      ap_uart.o
    0x0805544c   0x00000038   Code   RO  1725     i.uartdm_init       ap_uart.o
    0x08055484   0x00000028   Code   RO  1735     i.uartdm_init_local_receiver_status  ap_uart.o
    0x080554ac   0x00000284   Code   RO  1729     i.uartdm_receive_bytes  ap_uart.o
    0x08055730   0x00000014   Code   RO  1734     i.uartdm_reset_receiver  ap_uart.o
    0x08055744   0x00000020   Code   RO  1724     i.uartdm_start_receiving_data  ap_uart.o
    0x08055764   0x00000044   Code   RO  1727     i.uartdm_transmit_byte  ap_uart.o
    0x080557a8   0x00000008   Code   RO  1857     i.usb_active        qhsusb_al_hostdl.o
    0x080557b0   0x00000028   Code   RO  1856     i.usb_drain         qhsusb_al_hostdl.o
    0x080557d8   0x00000094   Code   RO  1858     i.usb_init          qhsusb_al_hostdl.o
    0x0805586c   0x00000004   Code   RO  1855     i.usb_transmit_byte  qhsusb_al_hostdl.o
    0x08055870   0x00000060   Code   RO   289     i.xmit_log_message  ap_packet.o


    Execution Region APP_RAM (Base: 0x080558d0, Size: 0x00028fb4, Max: 0xffffffff, ABSOLUTE)

    Base Addr    Size         Type   Attr  Idx  E Section Name        Object

    0x080558d0   0x00000006   Data   RO     7     .constdata          ap_armprg.o
    0x080558d6   0x00000002   PAD
    0x080558d8   0x000001fc   Data   RO   310     .constdata          ap_packet.o
    0x08055ad4   0x00000010   Data   RO   641     .constdata          flash_common.o
    0x08055ae4   0x00000013   Data   RO  1127     .constdata          flash_nor_spansion.o
    0x08055af7   0x00000013   Data   RO  1267     .constdata          flash_nor_samsung.o
    0x08055b0a   0x00000013   Data   RO  1271     .constdata          flash_nor_samsung.o
    0x08055b1d   0x00000013   Data   RO  1394     .constdata          flash_nor_intel.o
    0x08055b30   0x00000014   Data   RO  1398     .constdata          flash_nor_intel.o
    0x08055b44   0x00000c00   Data   RO  2505     .constdata          crc.o
    0x08056744   0x00000008   Data   RO  2633     .constdata          ap_flash.o
    0x0805674c   0x00000115   Data   RO  2713     .constdata          ap_id.o
    0x08056861   0x0000012b   Data   RO  2748     .constdata          defsig.o(lib\armlib\c_t__un.l)
    0x0805698c   0x0000007c   Data   RW   309     .data               ap_packet.o
    0x08056a08   0x00000008   Data   RW   531     .data               flash_msm.o
    0x08056a10   0x0000000c   Data   RW   532     .data               flash_msm.o
    0x08056a1c   0x0000000c   Data   RW   533     .data               flash_msm.o
    0x08056a28   0x00000020   Data   RW   535     .data               flash_msm.o
    0x08056a48   0x00000090   Data   RW   783     .data               flash_nor.o
    0x08056ad8   0x0000000c   Data   RW  1003     .data               flash_ram.o
    0x08056ae4   0x0000000c   Data   RW  1118     .data               flash_nor_spansion.o
    0x08056af0   0x00000028   Data   RW  1120     .data               flash_nor_spansion.o
    0x08056b18   0x000000b4   Data   RW  1123     .data               flash_nor_spansion.o
    0x08056bcc   0x00000028   Data   RW  1126     .data               flash_nor_spansion.o
    0x08056bf4   0x00000008   Data   RW  1259     .data               flash_nor_samsung.o
    0x08056bfc   0x00000028   Data   RW  1261     .data               flash_nor_samsung.o
    0x08056c24   0x00000028   Data   RW  1262     .data               flash_nor_samsung.o
    0x08056c4c   0x000000b4   Data   RW  1263     .data               flash_nor_samsung.o
    0x08056d00   0x000000b4   Data   RW  1265     .data               flash_nor_samsung.o
    0x08056db4   0x00000028   Data   RW  1266     .data               flash_nor_samsung.o
    0x08056ddc   0x00000028   Data   RW  1270     .data               flash_nor_samsung.o
    0x08056e04   0x00000028   Data   RW  1383     .data               flash_nor_intel.o
    0x08056e2c   0x00000028   Data   RW  1384     .data               flash_nor_intel.o
    0x08056e54   0x000000b4   Data   RW  1385     .data               flash_nor_intel.o
    0x08056f08   0x000000b4   Data   RW  1389     .data               flash_nor_intel.o
    0x08056fbc   0x00000028   Data   RW  1393     .data               flash_nor_intel.o
    0x08056fe4   0x00000028   Data   RW  1397     .data               flash_nor_intel.o
    0x0805700c   0x00000014   Data   RW  1737     .data               ap_uart.o
    0x08057020   0x0000001c   Data   RW  1860     .data               qhsusb_al_hostdl.o
    0x0805703c   0x00000014   Data   RW  1862     .data               qhsusb_al_hostdl.o
    0x08057050   0x00000118   Data   RW  1943     .data               qhsusb_fd_hdlc.o
    0x08057168   0x00000004   Data   RW  1945     .data               qhsusb_fd_hdlc.o
    0x0805716c   0x0000003e   Data   RW  1946     .data               qhsusb_fd_hdlc.o
    0x080571aa   0x00000024   Data   RW  1947     .data               qhsusb_fd_hdlc.o
    0x080571ce   0x00000012   Data   RW  1948     .data               qhsusb_fd_hdlc.o
    0x080571e0   0x00000030   Data   RW  1949     .data               qhsusb_fd_hdlc.o
    0x08057210   0x0000000c   Data   RW  2047     .data               qhsusb_dcd_ch9.o
    0x0805721c   0x00000004   Data   RW  2421     .data               qhsusb_dci_q1100.o
    0x08057220   0x00000001   Data   RW  2632     .data               ap_flash.o
    0x08057221   0x00000003   PAD
    0x08057224   0x00000004   Data   RW  2712     .data               ap_id.o
    0x08057228   0x00000004   Zero   RW     8     .bss                ap_armprg.o
    0x0805722c   0x00004000   Zero   RW     9     .bss                ap_armprg.o
    0x0805b22c   0x00000800   Zero   RW    10     .bss                ap_armprg.o
    0x0805ba2c   0x00000100   Zero   RW    11     .bss                ap_armprg.o
    0x0805bb2c   0x00000100   Zero   RW    12     .bss                ap_armprg.o
    0x0805bc2c   0x0001a29c   Zero   RW   311     .bss                ap_packet.o
    0x08075ec8   0x000001f4   Zero   RW   530     .bss                flash_msm.o
    0x080760bc   0x00000004   Zero   RW   536     .bss                flash_msm.o
    0x080760c0   0x000001e0   Zero   RW   642     .bss                flash_common.o
    0x080762a0   0x0000000c   Zero   RW   784     .bss                flash_nor.o
    0x080762ac   0x00000004   Zero   RW  1119     .bss                flash_nor_spansion.o
    0x080762b0   0x00000084   Zero   RW  1260     .bss                flash_nor_samsung.o
    0x08076334   0x00000814   Zero   RW  1381     .bss                flash_nor_intel.o
    0x08076b48   0x0000202c   Zero   RW  1736     .bss                ap_uart.o
    0x08078b74   0x00000004   Zero   RW  1861     .bss                qhsusb_al_hostdl.o
    0x08078b78   0x00003094   Zero   RW  1944     .bss                qhsusb_fd_hdlc.o
    0x0807bc0c   0x000003f4   PAD
    0x0807c000   0x00001000   Zero   RW  2231     .bss                qhsusb_dci.o
    0x0807d000   0x00000002   Zero   RW  2422     .bss                qhsusb_dci_q1100.o
    0x0807d002   0x00000002   PAD
    0x0807d004   0x0000000c   Zero   RW  2423     .bss                qhsusb_dci_q1100.o
    0x0807d010   0x00001874   Zero   RW  2634     .bss                ap_flash.o



  Load Region LR$$Debug (Base: 0x00000000, Size: 0x00000000, Max: 0xffffffff, ABSOLUTE)

    Execution Region ER$$Debug (Base: 0x00000000, Size: 0x00000000, Max: 0xffffffff, ABSOLUTE)

    Base Addr    Size         Type   Attr  Idx  E Section Name        Object

    0x00000000   0x00000010   Dbug   RW     4     .debug_abbrev       ap_startup.o
    0x00000010   0x000003ec   Dbug   RW    33     .debug_abbrev       ap_armprg.o
    0x00000000   0x0000004c   Dbug   RW    23     .debug_frame        ap_armprg.o
    0x0000004c   0x00000048   Dbug   RW    32     .debug_frame        ap_armprg.o
    0x00000094   0x00000048   Dbug   RW   393     .debug_frame        ap_packet.o
    0x000000dc   0x0000003c   Dbug   RW   397     .debug_frame        ap_packet.o
    0x00000118   0x0000006c   Dbug   RW   402     .debug_frame        ap_packet.o
    0x00000184   0x0000004c   Dbug   RW   407     .debug_frame        ap_packet.o
    0x000001d0   0x0000003c   Dbug   RW   412     .debug_frame        ap_packet.o
    0x0000020c   0x00000050   Dbug   RW   417     .debug_frame        ap_packet.o
    0x0000025c   0x00000058   Dbug   RW   422     .debug_frame        ap_packet.o
    0x000002b4   0x00000068   Dbug   RW   427     .debug_frame        ap_packet.o
    0x0000031c   0x00000054   Dbug   RW   437     .debug_frame        ap_packet.o
    0x00000370   0x00000048   Dbug   RW   442     .debug_frame        ap_packet.o
    0x000003b8   0x00000058   Dbug   RW   447     .debug_frame        ap_packet.o
    0x00000410   0x0000004c   Dbug   RW   452     .debug_frame        ap_packet.o
    0x0000045c   0x0000004c   Dbug   RW   457     .debug_frame        ap_packet.o
    0x000004a8   0x00000050   Dbug   RW   462     .debug_frame        ap_packet.o
    0x000004f8   0x00000050   Dbug   RW   467     .debug_frame        ap_packet.o
    0x00000548   0x0000004c   Dbug   RW   472     .debug_frame        ap_packet.o
    0x00000594   0x00000048   Dbug   RW   477     .debug_frame        ap_packet.o
    0x000005dc   0x00000048   Dbug   RW   482     .debug_frame        ap_packet.o
    0x00000624   0x00000048   Dbug   RW   487     .debug_frame        ap_packet.o
    0x0000066c   0x00000048   Dbug   RW   492     .debug_frame        ap_packet.o
    0x000006b4   0x00000048   Dbug   RW   497     .debug_frame        ap_packet.o
    0x000006fc   0x00000048   Dbug   RW   502     .debug_frame        ap_packet.o
    0x00000744   0x00000060   Dbug   RW   507     .debug_frame        ap_packet.o
    0x000007a4   0x00000048   Dbug   RW   516     .debug_frame        ap_packet.o
    0x000007ec   0x0000003c   Dbug   RW   557     .debug_frame        flash_msm.o
    0x00000828   0x00000064   Dbug   RW   562     .debug_frame        flash_msm.o
    0x0000088c   0x0000003c   Dbug   RW   571     .debug_frame        flash_msm.o
    0x000008c8   0x0000005c   Dbug   RW   662     .debug_frame        flash_common.o
    0x00000924   0x00000048   Dbug   RW   667     .debug_frame        flash_common.o
    0x0000096c   0x00000058   Dbug   RW   676     .debug_frame        flash_common.o
    0x000009c4   0x0000003c   Dbug   RW   753     .debug_frame        flash_os_none.o
    0x00000a00   0x0000003c   Dbug   RW   761     .debug_frame        flash_os_none.o
    0x00000a3c   0x0000003c   Dbug   RW   857     .debug_frame        flash_nor.o
    0x00000a78   0x00000058   Dbug   RW   862     .debug_frame        flash_nor.o
    0x00000ad0   0x00000050   Dbug   RW   867     .debug_frame        flash_nor.o
    0x00000b20   0x00000048   Dbug   RW   872     .debug_frame        flash_nor.o
    0x00000b68   0x0000003c   Dbug   RW   877     .debug_frame        flash_nor.o
    0x00000ba4   0x0000004c   Dbug   RW   882     .debug_frame        flash_nor.o
    0x00000bf0   0x0000003c   Dbug   RW   887     .debug_frame        flash_nor.o
    0x00000c2c   0x0000003c   Dbug   RW   892     .debug_frame        flash_nor.o
    0x00000c68   0x0000003c   Dbug   RW   897     .debug_frame        flash_nor.o
    0x00000ca4   0x0000003c   Dbug   RW   902     .debug_frame        flash_nor.o
    0x00000ce0   0x0000003c   Dbug   RW   907     .debug_frame        flash_nor.o
    0x00000d1c   0x0000004c   Dbug   RW   912     .debug_frame        flash_nor.o
    0x00000d68   0x00000050   Dbug   RW   917     .debug_frame        flash_nor.o
    0x00000db8   0x0000004c   Dbug   RW   922     .debug_frame        flash_nor.o
    0x00000e04   0x00000050   Dbug   RW   927     .debug_frame        flash_nor.o
    0x00000e54   0x0000003c   Dbug   RW   932     .debug_frame        flash_nor.o
    0x00000e90   0x0000003c   Dbug   RW   937     .debug_frame        flash_nor.o
    0x00000ecc   0x0000003c   Dbug   RW   942     .debug_frame        flash_nor.o
    0x00000f08   0x0000003c   Dbug   RW   947     .debug_frame        flash_nor.o
    0x00000f44   0x0000003c   Dbug   RW   952     .debug_frame        flash_nor.o
    0x00000f80   0x0000003c   Dbug   RW   961     .debug_frame        flash_nor.o
    0x00000fbc   0x0000005c   Dbug   RW  1035     .debug_frame        flash_ram.o
    0x00001018   0x00000050   Dbug   RW  1040     .debug_frame        flash_ram.o
    0x00001068   0x00000050   Dbug   RW  1045     .debug_frame        flash_ram.o
    0x000010b8   0x0000003c   Dbug   RW  1060     .debug_frame        flash_ram.o
    0x000010f4   0x00000048   Dbug   RW  1065     .debug_frame        flash_ram.o
    0x0000113c   0x00000048   Dbug   RW  1070     .debug_frame        flash_ram.o
    0x00001184   0x00000064   Dbug   RW  1079     .debug_frame        flash_ram.o
    0x000011e8   0x0000004c   Dbug   RW  1168     .debug_frame        flash_nor_spansion.o
    0x00001234   0x00000048   Dbug   RW  1178     .debug_frame        flash_nor_spansion.o
    0x0000127c   0x00000054   Dbug   RW  1183     .debug_frame        flash_nor_spansion.o
    0x000012d0   0x00000058   Dbug   RW  1188     .debug_frame        flash_nor_spansion.o
    0x00001328   0x0000004c   Dbug   RW  1193     .debug_frame        flash_nor_spansion.o
    0x00001374   0x0000005c   Dbug   RW  1198     .debug_frame        flash_nor_spansion.o
    0x000013d0   0x00000060   Dbug   RW  1203     .debug_frame        flash_nor_spansion.o
    0x00001430   0x0000005c   Dbug   RW  1208     .debug_frame        flash_nor_spansion.o
    0x0000148c   0x0000004c   Dbug   RW  1309     .debug_frame        flash_nor_samsung.o
    0x000014d8   0x00000048   Dbug   RW  1314     .debug_frame        flash_nor_samsung.o
    0x00001520   0x00000054   Dbug   RW  1319     .debug_frame        flash_nor_samsung.o
    0x00001574   0x00000058   Dbug   RW  1324     .debug_frame        flash_nor_samsung.o
    0x000015cc   0x0000003c   Dbug   RW  1329     .debug_frame        flash_nor_samsung.o
    0x00001608   0x00000060   Dbug   RW  1334     .debug_frame        flash_nor_samsung.o
    0x00001668   0x0000005c   Dbug   RW  1339     .debug_frame        flash_nor_samsung.o
    0x000016c4   0x00000060   Dbug   RW  1344     .debug_frame        flash_nor_samsung.o
    0x00001724   0x0000005c   Dbug   RW  1349     .debug_frame        flash_nor_samsung.o
    0x00001780   0x00000060   Dbug   RW  1363     .debug_frame        flash_nor_samsung.o
    0x000017e0   0x00000054   Dbug   RW  1448     .debug_frame        flash_nor_intel.o
    0x00001834   0x00000060   Dbug   RW  1453     .debug_frame        flash_nor_intel.o
    0x00001894   0x00000060   Dbug   RW  1458     .debug_frame        flash_nor_intel.o
    0x000018f4   0x00000060   Dbug   RW  1463     .debug_frame        flash_nor_intel.o
    0x00001954   0x0000004c   Dbug   RW  1468     .debug_frame        flash_nor_intel.o
    0x000019a0   0x0000003c   Dbug   RW  1473     .debug_frame        flash_nor_intel.o
    0x000019dc   0x0000004c   Dbug   RW  1478     .debug_frame        flash_nor_intel.o
    0x00001a28   0x0000004c   Dbug   RW  1483     .debug_frame        flash_nor_intel.o
    0x00001a74   0x00000058   Dbug   RW  1488     .debug_frame        flash_nor_intel.o
    0x00001acc   0x0000004c   Dbug   RW  1493     .debug_frame        flash_nor_intel.o
    0x00001b18   0x0000004c   Dbug   RW  1498     .debug_frame        flash_nor_intel.o
    0x00001b64   0x00000060   Dbug   RW  1503     .debug_frame        flash_nor_intel.o
    0x00001bc4   0x0000005c   Dbug   RW  1565     .debug_frame        flash_nor_utils.o
    0x00001c20   0x0000003c   Dbug   RW  1789     .debug_frame        ap_uart.o
    0x00001c5c   0x0000003c   Dbug   RW  1794     .debug_frame        ap_uart.o
    0x00001c98   0x0000003c   Dbug   RW  1798     .debug_frame        ap_uart.o
    0x00001cd4   0x00000048   Dbug   RW  1803     .debug_frame        ap_uart.o
    0x00001d1c   0x0000003c   Dbug   RW  1813     .debug_frame        ap_uart.o
    0x00001d58   0x00000064   Dbug   RW  1823     .debug_frame        ap_uart.o
    0x00001dbc   0x0000003c   Dbug   RW  1827     .debug_frame        ap_uart.o
    0x00001df8   0x00000048   Dbug   RW  1832     .debug_frame        ap_uart.o
    0x00001e40   0x00000058   Dbug   RW  1837     .debug_frame        ap_uart.o
    0x00001e98   0x0000003c   Dbug   RW  1841     .debug_frame        ap_uart.o
    0x00001ed4   0x0000003c   Dbug   RW  1845     .debug_frame        ap_uart.o
    0x00001f10   0x0000003c   Dbug   RW  1853     .debug_frame        ap_uart.o
    0x00001f4c   0x0000003c   Dbug   RW  1885     .debug_frame        qhsusb_al_hostdl.o
    0x00001f88   0x0000003c   Dbug   RW  1890     .debug_frame        qhsusb_al_hostdl.o
    0x00001fc4   0x0000004c   Dbug   RW  1895     .debug_frame        qhsusb_al_hostdl.o
    0x00002010   0x0000003c   Dbug   RW  1900     .debug_frame        qhsusb_al_hostdl.o
    0x0000204c   0x00000054   Dbug   RW  1905     .debug_frame        qhsusb_al_hostdl.o
    0x000020a0   0x00000054   Dbug   RW  1914     .debug_frame        qhsusb_al_hostdl.o
    0x000020f4   0x0000003c   Dbug   RW  1981     .debug_frame        qhsusb_fd_hdlc.o
    0x00002130   0x00000050   Dbug   RW  1986     .debug_frame        qhsusb_fd_hdlc.o
    0x00002180   0x0000005c   Dbug   RW  1996     .debug_frame        qhsusb_fd_hdlc.o
    0x000021dc   0x0000003c   Dbug   RW  2001     .debug_frame        qhsusb_fd_hdlc.o
    0x00002218   0x0000003c   Dbug   RW  2006     .debug_frame        qhsusb_fd_hdlc.o
    0x00002254   0x00000068   Dbug   RW  2011     .debug_frame        qhsusb_fd_hdlc.o
    0x000022bc   0x0000003c   Dbug   RW  2016     .debug_frame        qhsusb_fd_hdlc.o
    0x000022f8   0x0000004c   Dbug   RW  2025     .debug_frame        qhsusb_fd_hdlc.o
    0x00002344   0x00000054   Dbug   RW  2124     .debug_frame        qhsusb_dcd_ch9.o
    0x00002398   0x0000003c   Dbug   RW  2129     .debug_frame        qhsusb_dcd_ch9.o
    0x000023d4   0x00000050   Dbug   RW  2134     .debug_frame        qhsusb_dcd_ch9.o
    0x00002424   0x0000005c   Dbug   RW  2139     .debug_frame        qhsusb_dcd_ch9.o
    0x00002480   0x0000004c   Dbug   RW  2144     .debug_frame        qhsusb_dcd_ch9.o
    0x000024cc   0x00000064   Dbug   RW  2149     .debug_frame        qhsusb_dcd_ch9.o
    0x00002530   0x00000050   Dbug   RW  2154     .debug_frame        qhsusb_dcd_ch9.o
    0x00002580   0x0000003c   Dbug   RW  2159     .debug_frame        qhsusb_dcd_ch9.o
    0x000025bc   0x0000003c   Dbug   RW  2169     .debug_frame        qhsusb_dcd_ch9.o
    0x000025f8   0x00000050   Dbug   RW  2174     .debug_frame        qhsusb_dcd_ch9.o
    0x00002648   0x0000003c   Dbug   RW  2179     .debug_frame        qhsusb_dcd_ch9.o
    0x00002684   0x00000054   Dbug   RW  2184     .debug_frame        qhsusb_dcd_ch9.o
    0x000026d8   0x0000005c   Dbug   RW  2189     .debug_frame        qhsusb_dcd_ch9.o
    0x00002734   0x0000003c   Dbug   RW  2194     .debug_frame        qhsusb_dcd_ch9.o
    0x00002770   0x0000004c   Dbug   RW  2199     .debug_frame        qhsusb_dcd_ch9.o
    0x000027bc   0x0000004c   Dbug   RW  2208     .debug_frame        qhsusb_dcd_ch9.o
    0x00002808   0x00000050   Dbug   RW  2302     .debug_frame        qhsusb_dci.o
    0x00002858   0x0000005c   Dbug   RW  2307     .debug_frame        qhsusb_dci.o
    0x000028b4   0x0000003c   Dbug   RW  2312     .debug_frame        qhsusb_dci.o
    0x000028f0   0x0000003c   Dbug   RW  2317     .debug_frame        qhsusb_dci.o
    0x0000292c   0x0000003c   Dbug   RW  2322     .debug_frame        qhsusb_dci.o
    0x00002968   0x00000060   Dbug   RW  2327     .debug_frame        qhsusb_dci.o
    0x000029c8   0x00000048   Dbug   RW  2332     .debug_frame        qhsusb_dci.o
    0x00002a10   0x00000054   Dbug   RW  2337     .debug_frame        qhsusb_dci.o
    0x00002a64   0x00000054   Dbug   RW  2342     .debug_frame        qhsusb_dci.o
    0x00002ab8   0x00000054   Dbug   RW  2352     .debug_frame        qhsusb_dci.o
    0x00002b0c   0x0000003c   Dbug   RW  2362     .debug_frame        qhsusb_dci.o
    0x00002b48   0x0000003c   Dbug   RW  2367     .debug_frame        qhsusb_dci.o
    0x00002b84   0x0000003c   Dbug   RW  2372     .debug_frame        qhsusb_dci.o
    0x00002bc0   0x00000054   Dbug   RW  2377     .debug_frame        qhsusb_dci.o
    0x00002c14   0x00000058   Dbug   RW  2382     .debug_frame        qhsusb_dci.o
    0x00002c6c   0x00000060   Dbug   RW  2387     .debug_frame        qhsusb_dci.o
    0x00002ccc   0x0000003c   Dbug   RW  2392     .debug_frame        qhsusb_dci.o
    0x00002d08   0x00000060   Dbug   RW  2401     .debug_frame        qhsusb_dci.o
    0x00002d68   0x0000003c   Dbug   RW  2452     .debug_frame        qhsusb_dci_q1100.o
    0x00002da4   0x0000003c   Dbug   RW  2457     .debug_frame        qhsusb_dci_q1100.o
    0x00002de0   0x0000003c   Dbug   RW  2466     .debug_frame        qhsusb_dci_q1100.o
    0x00002e1c   0x0000003c   Dbug   RW  2476     .debug_frame        qhsusb_dci_q1100.o
    0x00002e58   0x0000003c   Dbug   RW  2480     .debug_frame        qhsusb_dci_q1100.o
    0x00002e94   0x0000003c   Dbug   RW  2488     .debug_frame        qhsusb_dci_q1100.o
    0x00002ed0   0x0000003c   Dbug   RW  2536     .debug_frame        crc.o
    0x00002f0c   0x0000003c   Dbug   RW  2556     .debug_frame        crc.o
    0x00002f48   0x0000003c   Dbug   RW  2600     .debug_frame        ap_msm.o
    0x00002f84   0x0000003c   Dbug   RW  2604     .debug_frame        ap_msm.o
    0x00002fc0   0x0000003c   Dbug   RW  2608     .debug_frame        ap_msm.o
    0x00002ffc   0x0000003c   Dbug   RW  2613     .debug_frame        ap_msm.o
    0x00003038   0x0000003c   Dbug   RW  2665     .debug_frame        ap_flash.o
    0x00003074   0x00000060   Dbug   RW  2670     .debug_frame        ap_flash.o
    0x000030d4   0x00000068   Dbug   RW  2685     .debug_frame        ap_flash.o
    0x0000313c   0x00000060   Dbug   RW  2690     .debug_frame        ap_flash.o
    0x0000319c   0x0000004c   Dbug   RW  2695     .debug_frame        ap_flash.o
    0x000031e8   0x0000004c   Dbug   RW  2700     .debug_frame        ap_flash.o
    0x00003234   0x00000054   Dbug   RW  2709     .debug_frame        ap_flash.o
    0x00003288   0x00000048   Dbug   RW  2719     .debug_frame        memcmp.o(lib\armlib\c_t__un.l)
    0x000032d0   0x00000054   Dbug   RW  2721     .debug_frame        rt_memclr_w.o(lib\armlib\c_t__un.l)
    0x00003324   0x0000003c   Dbug   RW  2723     .debug_frame        rt_memcpy.o(lib\armlib\c_t__un.l)
    0x00003360   0x00000054   Dbug   RW  2725     .debug_frame        rt_memcpy_w.o(lib\armlib\c_t__un.l)
    0x000033b4   0x00000044   Dbug   RW  2731     .debug_frame        rt_udiv.o(lib\armlib\c_t__un.l)
    0x000033f8   0x00000050   Dbug   RW  2733     .debug_frame        strncmp.o(lib\armlib\c_t__un.l)
    0x00003448   0x0000003c   Dbug   RW  2735     .debug_frame        rt_div0.o(lib\armlib\c_t__un.l)
    0x00003484   0x00000054   Dbug   RW  2741     .debug_frame        rt_raise.o(lib\armlib\c_t__un.l)
    0x000034d8   0x00000058   Dbug   RW  2743     .debug_frame        __raise.o(lib\armlib\c_t__un.l)
    0x00003530   0x00000044   Dbug   RW  2745     .debug_frame        sys_exit.o(lib\armlib\c_t__un.l)
    0x00003574   0x00000054   Dbug   RW  2749     .debug_frame        defsig.o(lib\armlib\c_t__un.l)
    0x000035c8   0x00000044   Dbug   RW  2752     .debug_frame        use_semi.o(lib\armlib\c_t__un.l)
    0x0000360c   0x00000050   Dbug   RW  2754     .debug_frame        sys_wrch.o(lib\armlib\c_t__un.l)
    0x00000000   0x00000060   Dbug   RW     2     .debug_info         ap_startup.o
    0x00000060   0x000001a8   Dbug   RW   126     .debug_info         ap_armprg.o
    0x00000208   0x000000c0   Dbug   RW    14     .debug_info         ap_armprg.o
    0x000002c8   0x0000007c   Dbug   RW    17     .debug_info         ap_armprg.o
    0x00000344   0x000000bc   Dbug   RW    20     .debug_info         ap_armprg.o
    0x00000400   0x00000534   Dbug   RW   130     .debug_info         ap_armprg.o
    0x00000934   0x00000134   Dbug   RW    25     .debug_info         ap_armprg.o
    0x00000a68   0x00000074   Dbug   RW    29     .debug_info         ap_armprg.o
    0x00000adc   0x0000006c   Dbug   RW   315     .debug_info         ap_packet.o
    0x00000b48   0x00000070   Dbug   RW   318     .debug_info         ap_packet.o
    0x00000bb8   0x0000008c   Dbug   RW   321     .debug_info         ap_packet.o
    0x00000c44   0x0000008c   Dbug   RW   324     .debug_info         ap_packet.o
    0x00000cd0   0x00000530   Dbug   RW   517     .debug_info         ap_packet.o
    0x00001200   0x000002e8   Dbug   RW   509     .debug_info         ap_packet.o
    0x000014e8   0x00000088   Dbug   RW   327     .debug_info         ap_packet.o
    0x00001570   0x000000a0   Dbug   RW   330     .debug_info         ap_packet.o
    0x00001610   0x0000009c   Dbug   RW   333     .debug_info         ap_packet.o
    0x000016ac   0x000000c4   Dbug   RW   336     .debug_info         ap_packet.o
    0x00001770   0x000000ac   Dbug   RW   342     .debug_info         ap_packet.o
    0x0000181c   0x0000007c   Dbug   RW   345     .debug_info         ap_packet.o
    0x00001898   0x000001b0   Dbug   RW   348     .debug_info         ap_packet.o
    0x00001a48   0x000000e8   Dbug   RW   351     .debug_info         ap_packet.o
    0x00001b30   0x00000078   Dbug   RW   354     .debug_info         ap_packet.o
    0x00001ba8   0x0000016c   Dbug   RW   357     .debug_info         ap_packet.o
    0x00001d14   0x0000016c   Dbug   RW   360     .debug_info         ap_packet.o
    0x00001e80   0x00000094   Dbug   RW   363     .debug_info         ap_packet.o
    0x00001f14   0x0000007c   Dbug   RW   366     .debug_info         ap_packet.o
    0x00001f90   0x00000078   Dbug   RW   369     .debug_info         ap_packet.o
    0x00002008   0x00000078   Dbug   RW   372     .debug_info         ap_packet.o
    0x00002080   0x00000080   Dbug   RW   375     .debug_info         ap_packet.o
    0x00002100   0x0000007c   Dbug   RW   378     .debug_info         ap_packet.o
    0x0000217c   0x0000007c   Dbug   RW   381     .debug_info         ap_packet.o
    0x000021f8   0x00000118   Dbug   RW   384     .debug_info         ap_packet.o
    0x00002310   0x00000060   Dbug   RW   387     .debug_info         ap_packet.o
    0x00002370   0x00000084   Dbug   RW   390     .debug_info         ap_packet.o
    0x000023f4   0x00000084   Dbug   RW   395     .debug_info         ap_packet.o
    0x00002478   0x000000c0   Dbug   RW   399     .debug_info         ap_packet.o
    0x00002538   0x00000080   Dbug   RW   404     .debug_info         ap_packet.o
    0x000025b8   0x00000084   Dbug   RW   409     .debug_info         ap_packet.o
    0x0000263c   0x00000088   Dbug   RW   414     .debug_info         ap_packet.o
    0x000026c4   0x000000dc   Dbug   RW   419     .debug_info         ap_packet.o
    0x000027a0   0x00000114   Dbug   RW   424     .debug_info         ap_packet.o
    0x000028b4   0x00000094   Dbug   RW   434     .debug_info         ap_packet.o
    0x00002948   0x00000070   Dbug   RW   439     .debug_info         ap_packet.o
    0x000029b8   0x00000150   Dbug   RW   444     .debug_info         ap_packet.o
    0x00002b08   0x000000e0   Dbug   RW   449     .debug_info         ap_packet.o
    0x00002be8   0x00000070   Dbug   RW   454     .debug_info         ap_packet.o
    0x00002c58   0x00000128   Dbug   RW   459     .debug_info         ap_packet.o
    0x00002d80   0x00000128   Dbug   RW   464     .debug_info         ap_packet.o
    0x00002ea8   0x00000094   Dbug   RW   469     .debug_info         ap_packet.o
    0x00002f3c   0x00000070   Dbug   RW   474     .debug_info         ap_packet.o
    0x00002fac   0x00000070   Dbug   RW   479     .debug_info         ap_packet.o
    0x0000301c   0x00000070   Dbug   RW   484     .debug_info         ap_packet.o
    0x0000308c   0x00000070   Dbug   RW   489     .debug_info         ap_packet.o
    0x000030fc   0x00000070   Dbug   RW   494     .debug_info         ap_packet.o
    0x0000316c   0x00000070   Dbug   RW   499     .debug_info         ap_packet.o
    0x000031dc   0x00000138   Dbug   RW   504     .debug_info         ap_packet.o
    0x00003314   0x00000078   Dbug   RW   513     .debug_info         ap_packet.o
    0x0000338c   0x000001a8   Dbug   RW   573     .debug_info         flash_msm.o
    0x00003534   0x000003e4   Dbug   RW   576     .debug_info         flash_msm.o
    0x00003918   0x00000988   Dbug   RW   580     .debug_info         flash_msm.o
    0x000042a0   0x00001444   Dbug   RW   592     .debug_info         flash_msm.o
    0x000056e4   0x000000a0   Dbug   RW   541     .debug_info         flash_msm.o
    0x00005784   0x000002fc   Dbug   RW   544     .debug_info         flash_msm.o
    0x00005a80   0x00000094   Dbug   RW   547     .debug_info         flash_msm.o
    0x00005b14   0x00000084   Dbug   RW   554     .debug_info         flash_msm.o
    0x00005b98   0x0000038c   Dbug   RW   559     .debug_info         flash_msm.o
    0x00005f24   0x00000398   Dbug   RW   599     .debug_info         flash_msm.o
    0x000062bc   0x0000012c   Dbug   RW   564     .debug_info         flash_msm.o
    0x000063e8   0x00000084   Dbug   RW   568     .debug_info         flash_msm.o
    0x0000646c   0x00000530   Dbug   RW   606     .debug_info         flash_msm.o
    0x0000699c   0x000000ac   Dbug   RW   644     .debug_info         flash_common.o
    0x00006a48   0x000000e0   Dbug   RW   647     .debug_info         flash_common.o
    0x00006b28   0x000000c4   Dbug   RW   650     .debug_info         flash_common.o
    0x00006bec   0x00000210   Dbug   RW   653     .debug_info         flash_common.o
    0x00006dfc   0x0000015c   Dbug   RW   669     .debug_info         flash_common.o
    0x00006f58   0x0000009c   Dbug   RW   656     .debug_info         flash_common.o
    0x00006ff4   0x000002d8   Dbug   RW   659     .debug_info         flash_common.o
    0x000072cc   0x00000094   Dbug   RW   664     .debug_info         flash_common.o
    0x00007360   0x000000e0   Dbug   RW   673     .debug_info         flash_common.o
    0x00007440   0x00000384   Dbug   RW   677     .debug_info         flash_common.o
    0x000077c4   0x000003ec   Dbug   RW   684     .debug_info         flash_common.o
    0x00007bb0   0x0000008c   Dbug   RW   718     .debug_info         flash_os_none.o
    0x00007c3c   0x0000008c   Dbug   RW   721     .debug_info         flash_os_none.o
    0x00007cc8   0x00000088   Dbug   RW   750     .debug_info         flash_os_none.o
    0x00007d50   0x00000088   Dbug   RW   758     .debug_info         flash_os_none.o
    0x00007dd8   0x000000dc   Dbug   RW   788     .debug_info         flash_nor.o
    0x00007eb4   0x00000160   Dbug   RW   954     .debug_info         flash_nor.o
    0x00008014   0x000001e0   Dbug   RW   791     .debug_info         flash_nor.o
    0x000081f4   0x00000150   Dbug   RW   794     .debug_info         flash_nor.o
    0x00008344   0x00000114   Dbug   RW   797     .debug_info         flash_nor.o
    0x00008458   0x000000b4   Dbug   RW   800     .debug_info         flash_nor.o
    0x0000850c   0x000000f8   Dbug   RW   803     .debug_info         flash_nor.o
    0x00008604   0x0000014c   Dbug   RW   806     .debug_info         flash_nor.o
    0x00008750   0x000000f8   Dbug   RW   809     .debug_info         flash_nor.o
    0x00008848   0x000000cc   Dbug   RW   812     .debug_info         flash_nor.o
    0x00008914   0x000000f4   Dbug   RW   815     .debug_info         flash_nor.o
    0x00008a08   0x000000b0   Dbug   RW   818     .debug_info         flash_nor.o
    0x00008ab8   0x000000b0   Dbug   RW   821     .debug_info         flash_nor.o
    0x00008b68   0x0000013c   Dbug   RW   824     .debug_info         flash_nor.o
    0x00008ca4   0x000000dc   Dbug   RW   827     .debug_info         flash_nor.o
    0x00008d80   0x000000d8   Dbug   RW   830     .debug_info         flash_nor.o
    0x00008e58   0x000000e8   Dbug   RW   833     .debug_info         flash_nor.o
    0x00008f40   0x000000a8   Dbug   RW   836     .debug_info         flash_nor.o
    0x00008fe8   0x000000b0   Dbug   RW   839     .debug_info         flash_nor.o
    0x00009098   0x000000b0   Dbug   RW   842     .debug_info         flash_nor.o
    0x00009148   0x000000b0   Dbug   RW   845     .debug_info         flash_nor.o
    0x000091f8   0x000000b4   Dbug   RW   848     .debug_info         flash_nor.o
    0x000092ac   0x00000128   Dbug   RW   851     .debug_info         flash_nor.o
    0x000093d4   0x000000d8   Dbug   RW   854     .debug_info         flash_nor.o
    0x000094ac   0x00000190   Dbug   RW   859     .debug_info         flash_nor.o
    0x0000963c   0x00000134   Dbug   RW   864     .debug_info         flash_nor.o
    0x00009770   0x000000cc   Dbug   RW   869     .debug_info         flash_nor.o
    0x0000983c   0x000000dc   Dbug   RW   874     .debug_info         flash_nor.o
    0x00009918   0x00000160   Dbug   RW   879     .debug_info         flash_nor.o
    0x00009a78   0x000000f0   Dbug   RW   884     .debug_info         flash_nor.o
    0x00009b68   0x00000098   Dbug   RW   889     .debug_info         flash_nor.o
    0x00009c00   0x000000e8   Dbug   RW   894     .debug_info         flash_nor.o
    0x00009ce8   0x0000008c   Dbug   RW   899     .debug_info         flash_nor.o
    0x00009d74   0x0000008c   Dbug   RW   904     .debug_info         flash_nor.o
    0x00009e00   0x00000124   Dbug   RW   909     .debug_info         flash_nor.o
    0x00009f24   0x000000d4   Dbug   RW   914     .debug_info         flash_nor.o
    0x00009ff8   0x000000c8   Dbug   RW   919     .debug_info         flash_nor.o
    0x0000a0c0   0x000000e0   Dbug   RW   924     .debug_info         flash_nor.o
    0x0000a1a0   0x000000a4   Dbug   RW   929     .debug_info         flash_nor.o
    0x0000a244   0x000000a4   Dbug   RW   934     .debug_info         flash_nor.o
    0x0000a2e8   0x000000a0   Dbug   RW   939     .debug_info         flash_nor.o
    0x0000a388   0x000000a4   Dbug   RW   944     .debug_info         flash_nor.o
    0x0000a42c   0x000000a4   Dbug   RW   949     .debug_info         flash_nor.o
    0x0000a4d0   0x000000e4   Dbug   RW   958     .debug_info         flash_nor.o
    0x0000a5b4   0x00000104   Dbug   RW  1005     .debug_info         flash_ram.o
    0x0000a6b8   0x000000a8   Dbug   RW  1008     .debug_info         flash_ram.o
    0x0000a760   0x000000a8   Dbug   RW  1011     .debug_info         flash_ram.o
    0x0000a808   0x000000c0   Dbug   RW  1020     .debug_info         flash_ram.o
    0x0000a8c8   0x000000c4   Dbug   RW  1023     .debug_info         flash_ram.o
    0x0000a98c   0x000000c4   Dbug   RW  1026     .debug_info         flash_ram.o
    0x0000aa50   0x000000ec   Dbug   RW  1029     .debug_info         flash_ram.o
    0x0000ab3c   0x000000d8   Dbug   RW  1032     .debug_info         flash_ram.o
    0x0000ac14   0x00000090   Dbug   RW  1037     .debug_info         flash_ram.o
    0x0000aca4   0x00000090   Dbug   RW  1042     .debug_info         flash_ram.o
    0x0000ad34   0x000000ac   Dbug   RW  1057     .debug_info         flash_ram.o
    0x0000ade0   0x000000b0   Dbug   RW  1062     .debug_info         flash_ram.o
    0x0000ae90   0x000000b0   Dbug   RW  1067     .debug_info         flash_ram.o
    0x0000af40   0x00000094   Dbug   RW  1072     .debug_info         flash_ram.o
    0x0000afd4   0x000000c4   Dbug   RW  1076     .debug_info         flash_ram.o
    0x0000b098   0x000003e4   Dbug   RW  1226     .debug_info         flash_nor_spansion.o
    0x0000b47c   0x00000988   Dbug   RW  1228     .debug_info         flash_nor_spansion.o
    0x0000be04   0x00001444   Dbug   RW  1232     .debug_info         flash_nor_spansion.o
    0x0000d248   0x000001b4   Dbug   RW  1215     .debug_info         flash_nor_spansion.o
    0x0000d3fc   0x0000016c   Dbug   RW  1132     .debug_info         flash_nor_spansion.o
    0x0000d568   0x000000d0   Dbug   RW  1138     .debug_info         flash_nor_spansion.o
    0x0000d638   0x00000130   Dbug   RW  1141     .debug_info         flash_nor_spansion.o
    0x0000d768   0x000001f4   Dbug   RW  1144     .debug_info         flash_nor_spansion.o
    0x0000d95c   0x00000168   Dbug   RW  1147     .debug_info         flash_nor_spansion.o
    0x0000dac4   0x00000190   Dbug   RW  1150     .debug_info         flash_nor_spansion.o
    0x0000dc54   0x00000200   Dbug   RW  1153     .debug_info         flash_nor_spansion.o
    0x0000de54   0x000001a0   Dbug   RW  1156     .debug_info         flash_nor_spansion.o
    0x0000dff4   0x00000144   Dbug   RW  1165     .debug_info         flash_nor_spansion.o
    0x0000e138   0x000000b8   Dbug   RW  1175     .debug_info         flash_nor_spansion.o
    0x0000e1f0   0x00000154   Dbug   RW  1180     .debug_info         flash_nor_spansion.o
    0x0000e344   0x000001e0   Dbug   RW  1185     .debug_info         flash_nor_spansion.o
    0x0000e524   0x00000134   Dbug   RW  1190     .debug_info         flash_nor_spansion.o
    0x0000e658   0x0000018c   Dbug   RW  1195     .debug_info         flash_nor_spansion.o
    0x0000e7e4   0x00000208   Dbug   RW  1200     .debug_info         flash_nor_spansion.o
    0x0000e9ec   0x0000017c   Dbug   RW  1205     .debug_info         flash_nor_spansion.o
    0x0000eb68   0x00000394   Dbug   RW  1234     .debug_info         flash_nor_spansion.o
    0x0000eefc   0x000001bc   Dbug   RW  1356     .debug_info         flash_nor_samsung.o
    0x0000f0b8   0x00000170   Dbug   RW  1273     .debug_info         flash_nor_samsung.o
    0x0000f228   0x000000d0   Dbug   RW  1276     .debug_info         flash_nor_samsung.o
    0x0000f2f8   0x00000130   Dbug   RW  1279     .debug_info         flash_nor_samsung.o
    0x0000f428   0x00000188   Dbug   RW  1282     .debug_info         flash_nor_samsung.o
    0x0000f5b0   0x000000fc   Dbug   RW  1285     .debug_info         flash_nor_samsung.o
    0x0000f6ac   0x00000104   Dbug   RW  1288     .debug_info         flash_nor_samsung.o
    0x0000f7b0   0x000001a0   Dbug   RW  1291     .debug_info         flash_nor_samsung.o
    0x0000f950   0x00000180   Dbug   RW  1294     .debug_info         flash_nor_samsung.o
    0x0000fad0   0x0000019c   Dbug   RW  1297     .debug_info         flash_nor_samsung.o
    0x0000fc6c   0x000001ec   Dbug   RW  1303     .debug_info         flash_nor_samsung.o
    0x0000fe58   0x00000144   Dbug   RW  1306     .debug_info         flash_nor_samsung.o
    0x0000ff9c   0x000000b8   Dbug   RW  1311     .debug_info         flash_nor_samsung.o
    0x00010054   0x00000154   Dbug   RW  1316     .debug_info         flash_nor_samsung.o
    0x000101a8   0x000001a0   Dbug   RW  1321     .debug_info         flash_nor_samsung.o
    0x00010348   0x000000f4   Dbug   RW  1326     .debug_info         flash_nor_samsung.o
    0x0001043c   0x0000010c   Dbug   RW  1331     .debug_info         flash_nor_samsung.o
    0x00010548   0x000001b0   Dbug   RW  1336     .debug_info         flash_nor_samsung.o
    0x000106f8   0x00000188   Dbug   RW  1341     .debug_info         flash_nor_samsung.o
    0x00010880   0x0000017c   Dbug   RW  1346     .debug_info         flash_nor_samsung.o
    0x000109fc   0x00000250   Dbug   RW  1360     .debug_info         flash_nor_samsung.o
    0x00010c4c   0x00000394   Dbug   RW  1364     .debug_info         flash_nor_samsung.o
    0x00010fe0   0x0000013c   Dbug   RW  1400     .debug_info         flash_nor_intel.o
    0x0001111c   0x00000270   Dbug   RW  1403     .debug_info         flash_nor_intel.o
    0x0001138c   0x0000025c   Dbug   RW  1406     .debug_info         flash_nor_intel.o
    0x000115e8   0x00000254   Dbug   RW  1409     .debug_info         flash_nor_intel.o
    0x0001183c   0x00000310   Dbug   RW  1515     .debug_info         flash_nor_intel.o
    0x00011b4c   0x00000148   Dbug   RW  1412     .debug_info         flash_nor_intel.o
    0x00011c94   0x000000f4   Dbug   RW  1415     .debug_info         flash_nor_intel.o
    0x00011d88   0x00000170   Dbug   RW  1418     .debug_info         flash_nor_intel.o
    0x00011ef8   0x00000140   Dbug   RW  1421     .debug_info         flash_nor_intel.o
    0x00012038   0x000001dc   Dbug   RW  1424     .debug_info         flash_nor_intel.o
    0x00012214   0x0000015c   Dbug   RW  1427     .debug_info         flash_nor_intel.o
    0x00012370   0x000000ec   Dbug   RW  1430     .debug_info         flash_nor_intel.o
    0x0001245c   0x000001c8   Dbug   RW  1433     .debug_info         flash_nor_intel.o
    0x00012624   0x00000114   Dbug   RW  1439     .debug_info         flash_nor_intel.o
    0x00012738   0x00000130   Dbug   RW  1445     .debug_info         flash_nor_intel.o
    0x00012868   0x00000238   Dbug   RW  1450     .debug_info         flash_nor_intel.o
    0x00012aa0   0x00000230   Dbug   RW  1455     .debug_info         flash_nor_intel.o
    0x00012cd0   0x00000254   Dbug   RW  1460     .debug_info         flash_nor_intel.o
    0x00012f24   0x0000012c   Dbug   RW  1465     .debug_info         flash_nor_intel.o
    0x00013050   0x000000b8   Dbug   RW  1470     .debug_info         flash_nor_intel.o
    0x00013108   0x0000013c   Dbug   RW  1475     .debug_info         flash_nor_intel.o
    0x00013244   0x00000138   Dbug   RW  1480     .debug_info         flash_nor_intel.o
    0x0001337c   0x0000017c   Dbug   RW  1485     .debug_info         flash_nor_intel.o
    0x000134f8   0x00000168   Dbug   RW  1490     .debug_info         flash_nor_intel.o
    0x00013660   0x000000d4   Dbug   RW  1495     .debug_info         flash_nor_intel.o
    0x00013734   0x000001bc   Dbug   RW  1500     .debug_info         flash_nor_intel.o
    0x000138f0   0x000000cc   Dbug   RW  1510     .debug_info         flash_nor_intel.o
    0x000139bc   0x00000398   Dbug   RW  1523     .debug_info         flash_nor_intel.o
    0x00013d54   0x000003ec   Dbug   RW  1525     .debug_info         flash_nor_intel.o
    0x00014140   0x00000118   Dbug   RW  1541     .debug_info         flash_nor_utils.o
    0x00014258   0x0000010c   Dbug   RW  1562     .debug_info         flash_nor_utils.o
    0x00014364   0x00000060   Dbug   RW  1739     .debug_info         ap_uart.o
    0x000143c4   0x00000098   Dbug   RW  1742     .debug_info         ap_uart.o
    0x0001445c   0x0000005c   Dbug   RW  1745     .debug_info         ap_uart.o
    0x000144b8   0x00000060   Dbug   RW  1748     .debug_info         ap_uart.o
    0x00014518   0x00000060   Dbug   RW  1751     .debug_info         ap_uart.o
    0x00014578   0x00000068   Dbug   RW  1754     .debug_info         ap_uart.o
    0x000145e0   0x00000064   Dbug   RW  1757     .debug_info         ap_uart.o
    0x00014644   0x00000084   Dbug   RW  1760     .debug_info         ap_uart.o
    0x000146c8   0x00000080   Dbug   RW  1766     .debug_info         ap_uart.o
    0x00014748   0x000001ec   Dbug   RW  1847     .debug_info         ap_uart.o
    0x00014934   0x000001d4   Dbug   RW  1772     .debug_info         ap_uart.o
    0x00014b08   0x00000058   Dbug   RW  1775     .debug_info         ap_uart.o
    0x00014b60   0x000000cc   Dbug   RW  1778     .debug_info         ap_uart.o
    0x00014c2c   0x000000b4   Dbug   RW  1781     .debug_info         ap_uart.o
    0x00014ce0   0x00000054   Dbug   RW  1784     .debug_info         ap_uart.o
    0x00014d34   0x00000074   Dbug   RW  1787     .debug_info         ap_uart.o
    0x00014da8   0x000000ac   Dbug   RW  1791     .debug_info         ap_uart.o
    0x00014e54   0x00000058   Dbug   RW  1796     .debug_info         ap_uart.o
    0x00014eac   0x00000094   Dbug   RW  1800     .debug_info         ap_uart.o
    0x00014f40   0x00000094   Dbug   RW  1810     .debug_info         ap_uart.o
    0x00014fd4   0x0000027c   Dbug   RW  1820     .debug_info         ap_uart.o
    0x00015250   0x00000058   Dbug   RW  1825     .debug_info         ap_uart.o
    0x000152a8   0x00000098   Dbug   RW  1829     .debug_info         ap_uart.o
    0x00015340   0x000000a0   Dbug   RW  1834     .debug_info         ap_uart.o
    0x000153e0   0x00000058   Dbug   RW  1839     .debug_info         ap_uart.o
    0x00015438   0x00000058   Dbug   RW  1843     .debug_info         ap_uart.o
    0x00015490   0x00000058   Dbug   RW  1851     .debug_info         ap_uart.o
    0x000154e8   0x00000088   Dbug   RW  1864     .debug_info         qhsusb_al_hostdl.o
    0x00015570   0x00000098   Dbug   RW  1867     .debug_info         qhsusb_al_hostdl.o
    0x00015608   0x000000c4   Dbug   RW  1870     .debug_info         qhsusb_al_hostdl.o
    0x000156cc   0x0000009c   Dbug   RW  1873     .debug_info         qhsusb_al_hostdl.o
    0x00015768   0x00000204   Dbug   RW  1916     .debug_info         qhsusb_al_hostdl.o
    0x0001596c   0x000000a4   Dbug   RW  1876     .debug_info         qhsusb_al_hostdl.o
    0x00015a10   0x00000718   Dbug   RW  1920     .debug_info         qhsusb_al_hostdl.o
    0x00016128   0x00000528   Dbug   RW  1931     .debug_info         qhsusb_al_hostdl.o
    0x00016650   0x00000148   Dbug   RW  1879     .debug_info         qhsusb_al_hostdl.o
    0x00016798   0x0000008c   Dbug   RW  1882     .debug_info         qhsusb_al_hostdl.o
    0x00016824   0x00000098   Dbug   RW  1887     .debug_info         qhsusb_al_hostdl.o
    0x000168bc   0x000000b4   Dbug   RW  1892     .debug_info         qhsusb_al_hostdl.o
    0x00016970   0x00000098   Dbug   RW  1897     .debug_info         qhsusb_al_hostdl.o
    0x00016a08   0x00000110   Dbug   RW  1902     .debug_info         qhsusb_al_hostdl.o
    0x00016b18   0x000000e0   Dbug   RW  1907     .debug_info         qhsusb_al_hostdl.o
    0x00016bf8   0x000000b4   Dbug   RW  1911     .debug_info         qhsusb_al_hostdl.o
    0x00016cac   0x0000010c   Dbug   RW  1951     .debug_info         qhsusb_fd_hdlc.o
    0x00016db8   0x000000d4   Dbug   RW  1954     .debug_info         qhsusb_fd_hdlc.o
    0x00016e8c   0x0000009c   Dbug   RW  1957     .debug_info         qhsusb_fd_hdlc.o
    0x00016f28   0x0000009c   Dbug   RW  1960     .debug_info         qhsusb_fd_hdlc.o
    0x00016fc4   0x0000033c   Dbug   RW  2018     .debug_info         qhsusb_fd_hdlc.o
    0x00017300   0x00000114   Dbug   RW  1963     .debug_info         qhsusb_fd_hdlc.o
    0x00017414   0x000000f8   Dbug   RW  1969     .debug_info         qhsusb_fd_hdlc.o
    0x0001750c   0x000000b8   Dbug   RW  1972     .debug_info         qhsusb_fd_hdlc.o
    0x000175c4   0x000000a4   Dbug   RW  1975     .debug_info         qhsusb_fd_hdlc.o
    0x00017668   0x000000ec   Dbug   RW  1978     .debug_info         qhsusb_fd_hdlc.o
    0x00017754   0x000000e8   Dbug   RW  1983     .debug_info         qhsusb_fd_hdlc.o
    0x0001783c   0x000000e0   Dbug   RW  1993     .debug_info         qhsusb_fd_hdlc.o
    0x0001791c   0x000000b0   Dbug   RW  1998     .debug_info         qhsusb_fd_hdlc.o
    0x000179cc   0x00000098   Dbug   RW  2003     .debug_info         qhsusb_fd_hdlc.o
    0x00017a64   0x0000013c   Dbug   RW  2008     .debug_info         qhsusb_fd_hdlc.o
    0x00017ba0   0x00000098   Dbug   RW  2013     .debug_info         qhsusb_fd_hdlc.o
    0x00017c38   0x0000009c   Dbug   RW  2022     .debug_info         qhsusb_fd_hdlc.o
    0x00017cd4   0x000000bc   Dbug   RW  2049     .debug_info         qhsusb_dcd_ch9.o
    0x00017d90   0x00000170   Dbug   RW  2209     .debug_info         qhsusb_dcd_ch9.o
    0x00017f00   0x000000b8   Dbug   RW  2201     .debug_info         qhsusb_dcd_ch9.o
    0x00017fb8   0x000000d0   Dbug   RW  2052     .debug_info         qhsusb_dcd_ch9.o
    0x00018088   0x000000e4   Dbug   RW  2055     .debug_info         qhsusb_dcd_ch9.o
    0x0001816c   0x000000b4   Dbug   RW  2058     .debug_info         qhsusb_dcd_ch9.o
    0x00018220   0x000000dc   Dbug   RW  2061     .debug_info         qhsusb_dcd_ch9.o
    0x000182fc   0x000000e4   Dbug   RW  2064     .debug_info         qhsusb_dcd_ch9.o
    0x000183e0   0x000000a8   Dbug   RW  2067     .debug_info         qhsusb_dcd_ch9.o
    0x00018488   0x000000b8   Dbug   RW  2070     .debug_info         qhsusb_dcd_ch9.o
    0x00018540   0x00000148   Dbug   RW  2073     .debug_info         qhsusb_dcd_ch9.o
    0x00018688   0x00000208   Dbug   RW  2076     .debug_info         qhsusb_dcd_ch9.o
    0x00018890   0x00000108   Dbug   RW  2079     .debug_info         qhsusb_dcd_ch9.o
    0x00018998   0x00000130   Dbug   RW  2082     .debug_info         qhsusb_dcd_ch9.o
    0x00018ac8   0x000000f4   Dbug   RW  2085     .debug_info         qhsusb_dcd_ch9.o
    0x00018bbc   0x000001a4   Dbug   RW  2088     .debug_info         qhsusb_dcd_ch9.o
    0x00018d60   0x000001b0   Dbug   RW  2091     .debug_info         qhsusb_dcd_ch9.o
    0x00018f10   0x00000198   Dbug   RW  2094     .debug_info         qhsusb_dcd_ch9.o
    0x000190a8   0x00000154   Dbug   RW  2097     .debug_info         qhsusb_dcd_ch9.o
    0x000191fc   0x00000184   Dbug   RW  2100     .debug_info         qhsusb_dcd_ch9.o
    0x00019380   0x00000204   Dbug   RW  2103     .debug_info         qhsusb_dcd_ch9.o
    0x00019584   0x000000d0   Dbug   RW  2106     .debug_info         qhsusb_dcd_ch9.o
    0x00019654   0x000001f0   Dbug   RW  2109     .debug_info         qhsusb_dcd_ch9.o
    0x00019844   0x000000ec   Dbug   RW  2112     .debug_info         qhsusb_dcd_ch9.o
    0x00019930   0x000000a4   Dbug   RW  2115     .debug_info         qhsusb_dcd_ch9.o
    0x000199d4   0x000002ac   Dbug   RW  2121     .debug_info         qhsusb_dcd_ch9.o
    0x00019c80   0x00000114   Dbug   RW  2126     .debug_info         qhsusb_dcd_ch9.o
    0x00019d94   0x00000104   Dbug   RW  2131     .debug_info         qhsusb_dcd_ch9.o
    0x00019e98   0x000004d0   Dbug   RW  2136     .debug_info         qhsusb_dcd_ch9.o
    0x0001a368   0x000000d4   Dbug   RW  2141     .debug_info         qhsusb_dcd_ch9.o
    0x0001a43c   0x00000154   Dbug   RW  2146     .debug_info         qhsusb_dcd_ch9.o
    0x0001a590   0x00000124   Dbug   RW  2151     .debug_info         qhsusb_dcd_ch9.o
    0x0001a6b4   0x000000b0   Dbug   RW  2156     .debug_info         qhsusb_dcd_ch9.o
    0x0001a764   0x000000d8   Dbug   RW  2166     .debug_info         qhsusb_dcd_ch9.o
    0x0001a83c   0x00000124   Dbug   RW  2171     .debug_info         qhsusb_dcd_ch9.o
    0x0001a960   0x000000b8   Dbug   RW  2176     .debug_info         qhsusb_dcd_ch9.o
    0x0001aa18   0x000001b4   Dbug   RW  2181     .debug_info         qhsusb_dcd_ch9.o
    0x0001abcc   0x00000198   Dbug   RW  2186     .debug_info         qhsusb_dcd_ch9.o
    0x0001ad64   0x000001cc   Dbug   RW  2191     .debug_info         qhsusb_dcd_ch9.o
    0x0001af30   0x0000021c   Dbug   RW  2196     .debug_info         qhsusb_dcd_ch9.o
    0x0001b14c   0x00000108   Dbug   RW  2205     .debug_info         qhsusb_dcd_ch9.o
    0x0001b254   0x000000c0   Dbug   RW  2233     .debug_info         qhsusb_dci.o
    0x0001b314   0x00000204   Dbug   RW  2402     .debug_info         qhsusb_dci.o
    0x0001b518   0x00000170   Dbug   RW  2404     .debug_info         qhsusb_dci.o
    0x0001b688   0x000000f4   Dbug   RW  2236     .debug_info         qhsusb_dci.o
    0x0001b77c   0x000000fc   Dbug   RW  2239     .debug_info         qhsusb_dci.o
    0x0001b878   0x0000058c   Dbug   RW  2407     .debug_info         qhsusb_dci.o
    0x0001be04   0x00000154   Dbug   RW  2242     .debug_info         qhsusb_dci.o
    0x0001bf58   0x000000e0   Dbug   RW  2245     .debug_info         qhsusb_dci.o
    0x0001c038   0x00000098   Dbug   RW  2248     .debug_info         qhsusb_dci.o
    0x0001c0d0   0x000000d4   Dbug   RW  2251     .debug_info         qhsusb_dci.o
    0x0001c1a4   0x000000e4   Dbug   RW  2254     .debug_info         qhsusb_dci.o
    0x0001c288   0x000000b8   Dbug   RW  2257     .debug_info         qhsusb_dci.o
    0x0001c340   0x000000ec   Dbug   RW  2260     .debug_info         qhsusb_dci.o
    0x0001c42c   0x000000f4   Dbug   RW  2263     .debug_info         qhsusb_dci.o
    0x0001c520   0x0000014c   Dbug   RW  2266     .debug_info         qhsusb_dci.o
    0x0001c66c   0x0000010c   Dbug   RW  2269     .debug_info         qhsusb_dci.o
    0x0001c778   0x00000170   Dbug   RW  2272     .debug_info         qhsusb_dci.o
    0x0001c8e8   0x00000174   Dbug   RW  2275     .debug_info         qhsusb_dci.o
    0x0001ca5c   0x0000014c   Dbug   RW  2278     .debug_info         qhsusb_dci.o
    0x0001cba8   0x000000fc   Dbug   RW  2284     .debug_info         qhsusb_dci.o
    0x0001cca4   0x000000e0   Dbug   RW  2290     .debug_info         qhsusb_dci.o
    0x0001cd84   0x000000c0   Dbug   RW  2293     .debug_info         qhsusb_dci.o
    0x0001ce44   0x000000c0   Dbug   RW  2296     .debug_info         qhsusb_dci.o
    0x0001cf04   0x000000c8   Dbug   RW  2299     .debug_info         qhsusb_dci.o
    0x0001cfcc   0x0000016c   Dbug   RW  2304     .debug_info         qhsusb_dci.o
    0x0001d138   0x000000b0   Dbug   RW  2309     .debug_info         qhsusb_dci.o
    0x0001d1e8   0x000000e8   Dbug   RW  2314     .debug_info         qhsusb_dci.o
    0x0001d2d0   0x000000f4   Dbug   RW  2319     .debug_info         qhsusb_dci.o
    0x0001d3c4   0x0000012c   Dbug   RW  2324     .debug_info         qhsusb_dci.o
    0x0001d4f0   0x00000118   Dbug   RW  2329     .debug_info         qhsusb_dci.o
    0x0001d608   0x0000012c   Dbug   RW  2334     .debug_info         qhsusb_dci.o
    0x0001d734   0x00000148   Dbug   RW  2339     .debug_info         qhsusb_dci.o
    0x0001d87c   0x00000108   Dbug   RW  2349     .debug_info         qhsusb_dci.o
    0x0001d984   0x000000e4   Dbug   RW  2359     .debug_info         qhsusb_dci.o
    0x0001da68   0x000000b0   Dbug   RW  2364     .debug_info         qhsusb_dci.o
    0x0001db18   0x000000b4   Dbug   RW  2369     .debug_info         qhsusb_dci.o
    0x0001dbcc   0x000000d8   Dbug   RW  2374     .debug_info         qhsusb_dci.o
    0x0001dca4   0x000000f0   Dbug   RW  2379     .debug_info         qhsusb_dci.o
    0x0001dd94   0x00000164   Dbug   RW  2384     .debug_info         qhsusb_dci.o
    0x0001def8   0x000000c0   Dbug   RW  2389     .debug_info         qhsusb_dci.o
    0x0001dfb8   0x00000170   Dbug   RW  2394     .debug_info         qhsusb_dci.o
    0x0001e128   0x00000148   Dbug   RW  2398     .debug_info         qhsusb_dci.o
    0x0001e270   0x000000b4   Dbug   RW  2425     .debug_info         qhsusb_dci_q1100.o
    0x0001e324   0x000000bc   Dbug   RW  2428     .debug_info         qhsusb_dci_q1100.o
    0x0001e3e0   0x0000009c   Dbug   RW  2434     .debug_info         qhsusb_dci_q1100.o
    0x0001e47c   0x00000098   Dbug   RW  2440     .debug_info         qhsusb_dci_q1100.o
    0x0001e514   0x000000a8   Dbug   RW  2443     .debug_info         qhsusb_dci_q1100.o
    0x0001e5bc   0x000000a8   Dbug   RW  2446     .debug_info         qhsusb_dci_q1100.o
    0x0001e664   0x0000009c   Dbug   RW  2449     .debug_info         qhsusb_dci_q1100.o
    0x0001e700   0x0000009c   Dbug   RW  2454     .debug_info         qhsusb_dci_q1100.o
    0x0001e79c   0x00000094   Dbug   RW  2464     .debug_info         qhsusb_dci_q1100.o
    0x0001e830   0x00000098   Dbug   RW  2473     .debug_info         qhsusb_dci_q1100.o
    0x0001e8c8   0x00000098   Dbug   RW  2478     .debug_info         qhsusb_dci_q1100.o
    0x0001e960   0x00000598   Dbug   RW  2489     .debug_info         qhsusb_dci_q1100.o
    0x0001eef8   0x000000d4   Dbug   RW  2482     .debug_info         qhsusb_dci_q1100.o
    0x0001efcc   0x00000098   Dbug   RW  2486     .debug_info         qhsusb_dci_q1100.o
    0x0001f064   0x000000dc   Dbug   RW  2510     .debug_info         crc.o
    0x0001f140   0x000000ec   Dbug   RW  2522     .debug_info         crc.o
    0x0001f22c   0x00000100   Dbug   RW  2533     .debug_info         crc.o
    0x0001f32c   0x000000c8   Dbug   RW  2553     .debug_info         crc.o
    0x0001f3f4   0x000000f8   Dbug   RW  2558     .debug_info         crc.o
    0x0001f4ec   0x00000058   Dbug   RW  2578     .debug_info         ap_msm.o
    0x0001f544   0x00000054   Dbug   RW  2581     .debug_info         ap_msm.o
    0x0001f598   0x0000005c   Dbug   RW  2584     .debug_info         ap_msm.o
    0x0001f5f4   0x0000005c   Dbug   RW  2587     .debug_info         ap_msm.o
    0x0001f650   0x00000058   Dbug   RW  2598     .debug_info         ap_msm.o
    0x0001f6a8   0x00000058   Dbug   RW  2602     .debug_info         ap_msm.o
    0x0001f700   0x00000074   Dbug   RW  2606     .debug_info         ap_msm.o
    0x0001f774   0x00000074   Dbug   RW  2610     .debug_info         ap_msm.o
    0x0001f7e8   0x00000068   Dbug   RW  2636     .debug_info         ap_flash.o
    0x0001f850   0x000001d0   Dbug   RW  2639     .debug_info         ap_flash.o
    0x0001fa20   0x000000dc   Dbug   RW  2648     .debug_info         ap_flash.o
    0x0001fafc   0x000001a4   Dbug   RW  2651     .debug_info         ap_flash.o
    0x0001fca0   0x000000b0   Dbug   RW  2654     .debug_info         ap_flash.o
    0x0001fd50   0x00000120   Dbug   RW  2702     .debug_info         ap_flash.o
    0x0001fe70   0x00000088   Dbug   RW  2657     .debug_info         ap_flash.o
    0x0001fef8   0x000000ec   Dbug   RW  2660     .debug_info         ap_flash.o
    0x0001ffe4   0x00000064   Dbug   RW  2663     .debug_info         ap_flash.o
    0x00020048   0x000001d8   Dbug   RW  2667     .debug_info         ap_flash.o
    0x00020220   0x000000e0   Dbug   RW  2682     .debug_info         ap_flash.o
    0x00020300   0x0000021c   Dbug   RW  2687     .debug_info         ap_flash.o
    0x0002051c   0x000000bc   Dbug   RW  2692     .debug_info         ap_flash.o
    0x000205d8   0x00000098   Dbug   RW  2697     .debug_info         ap_flash.o
    0x00020670   0x000000ec   Dbug   RW  2706     .debug_info         ap_flash.o
    0x0002075c   0x000000d0   Dbug   RW  2710     .debug_info         ap_flash.o
    0x0002082c   0x0000006c   Dbug   RW  2715     .debug_info         ap_id.o
    0x00000000   0x00000084   Dbug   RW     3     .debug_line         ap_startup.o
    0x00000084   0x00000060   Dbug   RW    19     .debug_line         ap_armprg.o
    0x000000e4   0x00002678   Dbug   RW    24     .debug_line         ap_armprg.o
    0x0000275c   0x00000064   Dbug   RW    28     .debug_line         ap_armprg.o
    0x000027c0   0x00000060   Dbug   RW   125     .debug_line         ap_armprg.o
    0x00002820   0x00000064   Dbug   RW   129     .debug_line         ap_armprg.o
    0x00002884   0x00000058   Dbug   RW   280     .debug_line         ap_armprg.o
    0x000028dc   0x00000068   Dbug   RW   389     .debug_line         ap_packet.o
    0x00002944   0x00000058   Dbug   RW   394     .debug_line         ap_packet.o
    0x0000299c   0x00000094   Dbug   RW   398     .debug_line         ap_packet.o
    0x00002a30   0x00000044   Dbug   RW   403     .debug_line         ap_packet.o
    0x00002a74   0x0000004c   Dbug   RW   408     .debug_line         ap_packet.o
    0x00002ac0   0x0000004c   Dbug   RW   413     .debug_line         ap_packet.o
    0x00002b0c   0x0000008c   Dbug   RW   418     .debug_line         ap_packet.o
    0x00002b98   0x0000009c   Dbug   RW   423     .debug_line         ap_packet.o
    0x00002c34   0x0000005c   Dbug   RW   433     .debug_line         ap_packet.o
    0x00002c90   0x00000044   Dbug   RW   438     .debug_line         ap_packet.o
    0x00002cd4   0x000000c8   Dbug   RW   443     .debug_line         ap_packet.o
    0x00002d9c   0x00000074   Dbug   RW   448     .debug_line         ap_packet.o
    0x00002e10   0x0000005c   Dbug   RW   453     .debug_line         ap_packet.o
    0x00002e6c   0x000000ac   Dbug   RW   458     .debug_line         ap_packet.o
    0x00002f18   0x000000ac   Dbug   RW   463     .debug_line         ap_packet.o
    0x00002fc4   0x00000064   Dbug   RW   468     .debug_line         ap_packet.o
    0x00003028   0x0000004c   Dbug   RW   473     .debug_line         ap_packet.o
    0x00003074   0x00000044   Dbug   RW   478     .debug_line         ap_packet.o
    0x000030b8   0x00000044   Dbug   RW   483     .debug_line         ap_packet.o
    0x000030fc   0x00000044   Dbug   RW   488     .debug_line         ap_packet.o
    0x00003140   0x00000044   Dbug   RW   493     .debug_line         ap_packet.o
    0x00003184   0x00000044   Dbug   RW   498     .debug_line         ap_packet.o
    0x000031c8   0x0000009c   Dbug   RW   503     .debug_line         ap_packet.o
    0x00003264   0x00002698   Dbug   RW   508     .debug_line         ap_packet.o
    0x000058fc   0x00000040   Dbug   RW   512     .debug_line         ap_packet.o
    0x0000593c   0x0000005c   Dbug   RW   553     .debug_line         flash_msm.o
    0x00005998   0x0000017c   Dbug   RW   558     .debug_line         flash_msm.o
    0x00005b14   0x000026b4   Dbug   RW   563     .debug_line         flash_msm.o
    0x000081c8   0x0000005c   Dbug   RW   567     .debug_line         flash_msm.o
    0x00008224   0x00000054   Dbug   RW   575     .debug_line         flash_msm.o
    0x00008278   0x00000088   Dbug   RW   579     .debug_line         flash_msm.o
    0x00008300   0x00000078   Dbug   RW   591     .debug_line         flash_msm.o
    0x00008378   0x0000009c   Dbug   RW   598     .debug_line         flash_msm.o
    0x00008414   0x00000100   Dbug   RW   658     .debug_line         flash_common.o
    0x00008514   0x00000064   Dbug   RW   663     .debug_line         flash_common.o
    0x00008578   0x00002694   Dbug   RW   668     .debug_line         flash_common.o
    0x0000ac0c   0x0000008c   Dbug   RW   672     .debug_line         flash_common.o
    0x0000ac98   0x00000080   Dbug   RW   683     .debug_line         flash_common.o
    0x0000ad18   0x00000060   Dbug   RW   749     .debug_line         flash_os_none.o
    0x0000ad78   0x00000060   Dbug   RW   757     .debug_line         flash_os_none.o
    0x0000add8   0x00000084   Dbug   RW   853     .debug_line         flash_nor.o
    0x0000ae5c   0x00000110   Dbug   RW   858     .debug_line         flash_nor.o
    0x0000af6c   0x0000007c   Dbug   RW   863     .debug_line         flash_nor.o
    0x0000afe8   0x00000060   Dbug   RW   868     .debug_line         flash_nor.o
    0x0000b048   0x00000064   Dbug   RW   873     .debug_line         flash_nor.o
    0x0000b0ac   0x000000c4   Dbug   RW   878     .debug_line         flash_nor.o
    0x0000b170   0x00000080   Dbug   RW   883     .debug_line         flash_nor.o
    0x0000b1f0   0x00000060   Dbug   RW   888     .debug_line         flash_nor.o
    0x0000b250   0x00000060   Dbug   RW   893     .debug_line         flash_nor.o
    0x0000b2b0   0x0000005c   Dbug   RW   898     .debug_line         flash_nor.o
    0x0000b30c   0x0000005c   Dbug   RW   903     .debug_line         flash_nor.o
    0x0000b368   0x00000090   Dbug   RW   908     .debug_line         flash_nor.o
    0x0000b3f8   0x0000007c   Dbug   RW   913     .debug_line         flash_nor.o
    0x0000b474   0x00000074   Dbug   RW   918     .debug_line         flash_nor.o
    0x0000b4e8   0x00000074   Dbug   RW   923     .debug_line         flash_nor.o
    0x0000b55c   0x0000005c   Dbug   RW   928     .debug_line         flash_nor.o
    0x0000b5b8   0x0000005c   Dbug   RW   933     .debug_line         flash_nor.o
    0x0000b614   0x0000005c   Dbug   RW   938     .debug_line         flash_nor.o
    0x0000b670   0x0000005c   Dbug   RW   943     .debug_line         flash_nor.o
    0x0000b6cc   0x0000005c   Dbug   RW   948     .debug_line         flash_nor.o
    0x0000b728   0x000026b4   Dbug   RW   953     .debug_line         flash_nor.o
    0x0000dddc   0x00000070   Dbug   RW   957     .debug_line         flash_nor.o
    0x0000de4c   0x00000068   Dbug   RW  1031     .debug_line         flash_ram.o
    0x0000deb4   0x00000078   Dbug   RW  1036     .debug_line         flash_ram.o
    0x0000df2c   0x00000070   Dbug   RW  1041     .debug_line         flash_ram.o
    0x0000df9c   0x0000007c   Dbug   RW  1056     .debug_line         flash_ram.o
    0x0000e018   0x0000007c   Dbug   RW  1061     .debug_line         flash_ram.o
    0x0000e094   0x0000007c   Dbug   RW  1066     .debug_line         flash_ram.o
    0x0000e110   0x0000268c   Dbug   RW  1071     .debug_line         flash_ram.o
    0x0001079c   0x00000084   Dbug   RW  1075     .debug_line         flash_ram.o
    0x00010820   0x000000a0   Dbug   RW  1164     .debug_line         flash_nor_spansion.o
    0x000108c0   0x00000080   Dbug   RW  1174     .debug_line         flash_nor_spansion.o
    0x00010940   0x00000098   Dbug   RW  1179     .debug_line         flash_nor_spansion.o
    0x000109d8   0x000000cc   Dbug   RW  1184     .debug_line         flash_nor_spansion.o
    0x00010aa4   0x00000074   Dbug   RW  1189     .debug_line         flash_nor_spansion.o
    0x00010b18   0x0000008c   Dbug   RW  1194     .debug_line         flash_nor_spansion.o
    0x00010ba4   0x000000d4   Dbug   RW  1199     .debug_line         flash_nor_spansion.o
    0x00010c78   0x000000b4   Dbug   RW  1204     .debug_line         flash_nor_spansion.o
    0x00010d2c   0x00002694   Dbug   RW  1214     .debug_line         flash_nor_spansion.o
    0x000133c0   0x0000009c   Dbug   RW  1305     .debug_line         flash_nor_samsung.o
    0x0001345c   0x00000080   Dbug   RW  1310     .debug_line         flash_nor_samsung.o
    0x000134dc   0x00000094   Dbug   RW  1315     .debug_line         flash_nor_samsung.o
    0x00013570   0x000000c0   Dbug   RW  1320     .debug_line         flash_nor_samsung.o
    0x00013630   0x0000006c   Dbug   RW  1325     .debug_line         flash_nor_samsung.o
    0x0001369c   0x000000a8   Dbug   RW  1330     .debug_line         flash_nor_samsung.o
    0x00013744   0x000000a4   Dbug   RW  1335     .debug_line         flash_nor_samsung.o
    0x000137e8   0x000000d4   Dbug   RW  1340     .debug_line         flash_nor_samsung.o
    0x000138bc   0x000000b4   Dbug   RW  1345     .debug_line         flash_nor_samsung.o
    0x00013970   0x00002688   Dbug   RW  1355     .debug_line         flash_nor_samsung.o
    0x00015ff8   0x00000118   Dbug   RW  1359     .debug_line         flash_nor_samsung.o
    0x00016110   0x00000084   Dbug   RW  1444     .debug_line         flash_nor_intel.o
    0x00016194   0x000000f4   Dbug   RW  1449     .debug_line         flash_nor_intel.o
    0x00016288   0x000000c0   Dbug   RW  1454     .debug_line         flash_nor_intel.o
    0x00016348   0x000000d4   Dbug   RW  1459     .debug_line         flash_nor_intel.o
    0x0001641c   0x00000090   Dbug   RW  1464     .debug_line         flash_nor_intel.o
    0x000164ac   0x00000070   Dbug   RW  1469     .debug_line         flash_nor_intel.o
    0x0001651c   0x00000094   Dbug   RW  1474     .debug_line         flash_nor_intel.o
    0x000165b0   0x0000009c   Dbug   RW  1479     .debug_line         flash_nor_intel.o
    0x0001664c   0x000000b4   Dbug   RW  1484     .debug_line         flash_nor_intel.o
    0x00016700   0x000000a8   Dbug   RW  1489     .debug_line         flash_nor_intel.o
    0x000167a8   0x00000080   Dbug   RW  1494     .debug_line         flash_nor_intel.o
    0x00016828   0x000000cc   Dbug   RW  1499     .debug_line         flash_nor_intel.o
    0x000168f4   0x00000068   Dbug   RW  1509     .debug_line         flash_nor_intel.o
    0x0001695c   0x000026a0   Dbug   RW  1514     .debug_line         flash_nor_intel.o
    0x00018ffc   0x00000094   Dbug   RW  1561     .debug_line         flash_nor_utils.o
    0x00019090   0x00000048   Dbug   RW  1786     .debug_line         ap_uart.o
    0x000190d8   0x00000064   Dbug   RW  1790     .debug_line         ap_uart.o
    0x0001913c   0x00000040   Dbug   RW  1795     .debug_line         ap_uart.o
    0x0001917c   0x00000050   Dbug   RW  1799     .debug_line         ap_uart.o
    0x000191cc   0x0000004c   Dbug   RW  1809     .debug_line         ap_uart.o
    0x00019218   0x00000170   Dbug   RW  1819     .debug_line         ap_uart.o
    0x00019388   0x00000040   Dbug   RW  1824     .debug_line         ap_uart.o
    0x000193c8   0x0000004c   Dbug   RW  1828     .debug_line         ap_uart.o
    0x00019414   0x0000005c   Dbug   RW  1833     .debug_line         ap_uart.o
    0x00019470   0x0000003c   Dbug   RW  1838     .debug_line         ap_uart.o
    0x000194ac   0x00000040   Dbug   RW  1842     .debug_line         ap_uart.o
    0x000194ec   0x00002664   Dbug   RW  1846     .debug_line         ap_uart.o
    0x0001bb50   0x00000044   Dbug   RW  1850     .debug_line         ap_uart.o
    0x0001bb94   0x00000070   Dbug   RW  1881     .debug_line         qhsusb_al_hostdl.o
    0x0001bc04   0x00000070   Dbug   RW  1886     .debug_line         qhsusb_al_hostdl.o
    0x0001bc74   0x00000078   Dbug   RW  1891     .debug_line         qhsusb_al_hostdl.o
    0x0001bcec   0x00000074   Dbug   RW  1896     .debug_line         qhsusb_al_hostdl.o
    0x0001bd60   0x00000098   Dbug   RW  1901     .debug_line         qhsusb_al_hostdl.o
    0x0001bdf8   0x000026b8   Dbug   RW  1906     .debug_line         qhsusb_al_hostdl.o
    0x0001e4b0   0x00000078   Dbug   RW  1910     .debug_line         qhsusb_al_hostdl.o
    0x0001e528   0x00000088   Dbug   RW  1915     .debug_line         qhsusb_al_hostdl.o
    0x0001e5b0   0x00000088   Dbug   RW  1919     .debug_line         qhsusb_al_hostdl.o
    0x0001e638   0x000000c8   Dbug   RW  1926     .debug_line         qhsusb_al_hostdl.o
    0x0001e700   0x0000007c   Dbug   RW  1930     .debug_line         qhsusb_al_hostdl.o
    0x0001e77c   0x00000098   Dbug   RW  1977     .debug_line         qhsusb_fd_hdlc.o
    0x0001e814   0x000000e4   Dbug   RW  1982     .debug_line         qhsusb_fd_hdlc.o
    0x0001e8f8   0x00000094   Dbug   RW  1992     .debug_line         qhsusb_fd_hdlc.o
    0x0001e98c   0x00000078   Dbug   RW  1997     .debug_line         qhsusb_fd_hdlc.o
    0x0001ea04   0x00000070   Dbug   RW  2002     .debug_line         qhsusb_fd_hdlc.o
    0x0001ea74   0x000000b4   Dbug   RW  2007     .debug_line         qhsusb_fd_hdlc.o
    0x0001eb28   0x00000070   Dbug   RW  2012     .debug_line         qhsusb_fd_hdlc.o
    0x0001eb98   0x0000268c   Dbug   RW  2017     .debug_line         qhsusb_fd_hdlc.o
    0x00021224   0x00000070   Dbug   RW  2021     .debug_line         qhsusb_fd_hdlc.o
    0x00021294   0x000000e0   Dbug   RW  2120     .debug_line         qhsusb_dcd_ch9.o
    0x00021374   0x00000080   Dbug   RW  2125     .debug_line         qhsusb_dcd_ch9.o
    0x000213f4   0x00000088   Dbug   RW  2130     .debug_line         qhsusb_dcd_ch9.o
    0x0002147c   0x000000f0   Dbug   RW  2135     .debug_line         qhsusb_dcd_ch9.o
    0x0002156c   0x00000080   Dbug   RW  2140     .debug_line         qhsusb_dcd_ch9.o
    0x000215ec   0x00000090   Dbug   RW  2145     .debug_line         qhsusb_dcd_ch9.o
    0x0002167c   0x0000009c   Dbug   RW  2150     .debug_line         qhsusb_dcd_ch9.o
    0x00021718   0x00000074   Dbug   RW  2155     .debug_line         qhsusb_dcd_ch9.o
    0x0002178c   0x00000074   Dbug   RW  2165     .debug_line         qhsusb_dcd_ch9.o
    0x00021800   0x00000094   Dbug   RW  2170     .debug_line         qhsusb_dcd_ch9.o
    0x00021894   0x00000070   Dbug   RW  2175     .debug_line         qhsusb_dcd_ch9.o
    0x00021904   0x00000098   Dbug   RW  2180     .debug_line         qhsusb_dcd_ch9.o
    0x0002199c   0x000000b8   Dbug   RW  2185     .debug_line         qhsusb_dcd_ch9.o
    0x00021a54   0x000000b0   Dbug   RW  2190     .debug_line         qhsusb_dcd_ch9.o
    0x00021b04   0x000000c4   Dbug   RW  2195     .debug_line         qhsusb_dcd_ch9.o
    0x00021bc8   0x000026b8   Dbug   RW  2200     .debug_line         qhsusb_dcd_ch9.o
    0x00024280   0x00000088   Dbug   RW  2204     .debug_line         qhsusb_dcd_ch9.o
    0x00024308   0x00000090   Dbug   RW  2298     .debug_line         qhsusb_dci.o
    0x00024398   0x000000a8   Dbug   RW  2303     .debug_line         qhsusb_dci.o
    0x00024440   0x00000080   Dbug   RW  2308     .debug_line         qhsusb_dci.o
    0x000244c0   0x00000084   Dbug   RW  2313     .debug_line         qhsusb_dci.o
    0x00024544   0x00000088   Dbug   RW  2318     .debug_line         qhsusb_dci.o
    0x000245cc   0x000000c4   Dbug   RW  2323     .debug_line         qhsusb_dci.o
    0x00024690   0x000000a4   Dbug   RW  2328     .debug_line         qhsusb_dci.o
    0x00024734   0x000000bc   Dbug   RW  2333     .debug_line         qhsusb_dci.o
    0x000247f0   0x000000a0   Dbug   RW  2338     .debug_line         qhsusb_dci.o
    0x00024890   0x000000c4   Dbug   RW  2348     .debug_line         qhsusb_dci.o
    0x00024954   0x00000094   Dbug   RW  2358     .debug_line         qhsusb_dci.o
    0x000249e8   0x00000070   Dbug   RW  2363     .debug_line         qhsusb_dci.o
    0x00024a58   0x00000070   Dbug   RW  2368     .debug_line         qhsusb_dci.o
    0x00024ac8   0x00000094   Dbug   RW  2373     .debug_line         qhsusb_dci.o
    0x00024b5c   0x0000009c   Dbug   RW  2378     .debug_line         qhsusb_dci.o
    0x00024bf8   0x000000b8   Dbug   RW  2383     .debug_line         qhsusb_dci.o
    0x00024cb0   0x00000078   Dbug   RW  2388     .debug_line         qhsusb_dci.o
    0x00024d28   0x000026d0   Dbug   RW  2393     .debug_line         qhsusb_dci.o
    0x000273f8   0x000000b8   Dbug   RW  2397     .debug_line         qhsusb_dci.o
    0x000274b0   0x00000090   Dbug   RW  2406     .debug_line         qhsusb_dci.o
    0x00027540   0x00000078   Dbug   RW  2448     .debug_line         qhsusb_dci_q1100.o
    0x000275b8   0x00000074   Dbug   RW  2453     .debug_line         qhsusb_dci_q1100.o
    0x0002762c   0x00000074   Dbug   RW  2463     .debug_line         qhsusb_dci_q1100.o
    0x000276a0   0x00000074   Dbug   RW  2472     .debug_line         qhsusb_dci_q1100.o
    0x00027714   0x00000074   Dbug   RW  2477     .debug_line         qhsusb_dci_q1100.o
    0x00027788   0x000026c4   Dbug   RW  2481     .debug_line         qhsusb_dci_q1100.o
    0x00029e4c   0x00000074   Dbug   RW  2485     .debug_line         qhsusb_dci_q1100.o
    0x00029ec0   0x0000007c   Dbug   RW  2532     .debug_line         crc.o
    0x00029f3c   0x00000064   Dbug   RW  2552     .debug_line         crc.o
    0x00029fa0   0x00002650   Dbug   RW  2557     .debug_line         crc.o
    0x0002c5f0   0x0000003c   Dbug   RW  2597     .debug_line         ap_msm.o
    0x0002c62c   0x0000003c   Dbug   RW  2601     .debug_line         ap_msm.o
    0x0002c668   0x00000050   Dbug   RW  2605     .debug_line         ap_msm.o
    0x0002c6b8   0x0000003c   Dbug   RW  2609     .debug_line         ap_msm.o
    0x0002c6f4   0x0000004c   Dbug   RW  2662     .debug_line         ap_flash.o
    0x0002c740   0x000000d8   Dbug   RW  2666     .debug_line         ap_flash.o
    0x0002c818   0x00000078   Dbug   RW  2681     .debug_line         ap_flash.o
    0x0002c890   0x000000cc   Dbug   RW  2686     .debug_line         ap_flash.o
    0x0002c95c   0x00000064   Dbug   RW  2691     .debug_line         ap_flash.o
    0x0002c9c0   0x00000058   Dbug   RW  2696     .debug_line         ap_flash.o
    0x0002ca18   0x000026a8   Dbug   RW  2701     .debug_line         ap_flash.o
    0x0002f0c0   0x000000b0   Dbug   RW  2705     .debug_line         ap_flash.o
    0x0002f170   0x0000263c   Dbug   RW  2714     .debug_line         ap_id.o
    0x00000000   0x00000078   Dbug   RW    22     .debug_loc          ap_armprg.o
    0x00000078   0x00000020   Dbug   RW    31     .debug_loc          ap_armprg.o
    0x00000098   0x00000034   Dbug   RW   392     .debug_loc          ap_packet.o
    0x000000cc   0x0000007c   Dbug   RW   401     .debug_loc          ap_packet.o
    0x00000148   0x00000048   Dbug   RW   406     .debug_loc          ap_packet.o
    0x00000190   0x00000044   Dbug   RW   411     .debug_loc          ap_packet.o
    0x000001d4   0x00000070   Dbug   RW   416     .debug_loc          ap_packet.o
    0x00000244   0x00000084   Dbug   RW   421     .debug_loc          ap_packet.o
    0x000002c8   0x000000a8   Dbug   RW   426     .debug_loc          ap_packet.o
    0x00000370   0x00000090   Dbug   RW   436     .debug_loc          ap_packet.o
    0x00000400   0x00000034   Dbug   RW   441     .debug_loc          ap_packet.o
    0x00000434   0x00000124   Dbug   RW   446     .debug_loc          ap_packet.o
    0x00000558   0x000000d4   Dbug   RW   451     .debug_loc          ap_packet.o
    0x0000062c   0x00000034   Dbug   RW   456     .debug_loc          ap_packet.o
    0x00000660   0x000000f4   Dbug   RW   461     .debug_loc          ap_packet.o
    0x00000754   0x000000f4   Dbug   RW   466     .debug_loc          ap_packet.o
    0x00000848   0x00000078   Dbug   RW   471     .debug_loc          ap_packet.o
    0x000008c0   0x00000034   Dbug   RW   476     .debug_loc          ap_packet.o
    0x000008f4   0x00000034   Dbug   RW   481     .debug_loc          ap_packet.o
    0x00000928   0x00000034   Dbug   RW   486     .debug_loc          ap_packet.o
    0x0000095c   0x00000034   Dbug   RW   491     .debug_loc          ap_packet.o
    0x00000990   0x00000034   Dbug   RW   496     .debug_loc          ap_packet.o
    0x000009c4   0x00000034   Dbug   RW   501     .debug_loc          ap_packet.o
    0x000009f8   0x000000a0   Dbug   RW   506     .debug_loc          ap_packet.o
    0x00000a98   0x00000020   Dbug   RW   515     .debug_loc          ap_packet.o
    0x00000ab8   0x00000000   Dbug   RW   556     .debug_loc          flash_msm.o
    0x00000ab8   0x000002d4   Dbug   RW   561     .debug_loc          flash_msm.o
    0x00000d8c   0x00000014   Dbug   RW   570     .debug_loc          flash_msm.o
    0x00000da0   0x00000194   Dbug   RW   661     .debug_loc          flash_common.o
    0x00000f34   0x00000048   Dbug   RW   666     .debug_loc          flash_common.o
    0x00000f7c   0x00000080   Dbug   RW   675     .debug_loc          flash_common.o
    0x00000ffc   0x00000014   Dbug   RW   752     .debug_loc          flash_os_none.o
    0x00001010   0x00000014   Dbug   RW   760     .debug_loc          flash_os_none.o
    0x00001024   0x00000058   Dbug   RW   856     .debug_loc          flash_nor.o
    0x0000107c   0x0000019c   Dbug   RW   861     .debug_loc          flash_nor.o
    0x00001218   0x00000134   Dbug   RW   866     .debug_loc          flash_nor.o
    0x0000134c   0x000000c8   Dbug   RW   871     .debug_loc          flash_nor.o
    0x00001414   0x00000058   Dbug   RW   876     .debug_loc          flash_nor.o
    0x0000146c   0x00000144   Dbug   RW   881     .debug_loc          flash_nor.o
    0x000015b0   0x00000098   Dbug   RW   886     .debug_loc          flash_nor.o
    0x00001648   0x00000014   Dbug   RW   891     .debug_loc          flash_nor.o
    0x0000165c   0x0000003c   Dbug   RW   896     .debug_loc          flash_nor.o
    0x00001698   0x00000014   Dbug   RW   901     .debug_loc          flash_nor.o
    0x000016ac   0x00000014   Dbug   RW   906     .debug_loc          flash_nor.o
    0x000016c0   0x00000104   Dbug   RW   911     .debug_loc          flash_nor.o
    0x000017c4   0x000000a4   Dbug   RW   916     .debug_loc          flash_nor.o
    0x00001868   0x0000008c   Dbug   RW   921     .debug_loc          flash_nor.o
    0x000018f4   0x00000098   Dbug   RW   926     .debug_loc          flash_nor.o
    0x0000198c   0x0000003c   Dbug   RW   931     .debug_loc          flash_nor.o
    0x000019c8   0x0000003c   Dbug   RW   936     .debug_loc          flash_nor.o
    0x00001a04   0x00000028   Dbug   RW   941     .debug_loc          flash_nor.o
    0x00001a2c   0x0000003c   Dbug   RW   946     .debug_loc          flash_nor.o
    0x00001a68   0x0000003c   Dbug   RW   951     .debug_loc          flash_nor.o
    0x00001aa4   0x000000a0   Dbug   RW   960     .debug_loc          flash_nor.o
    0x00001b44   0x000000b8   Dbug   RW  1034     .debug_loc          flash_ram.o
    0x00001bfc   0x0000005c   Dbug   RW  1039     .debug_loc          flash_ram.o
    0x00001c58   0x0000005c   Dbug   RW  1044     .debug_loc          flash_ram.o
    0x00001cb4   0x00000070   Dbug   RW  1059     .debug_loc          flash_ram.o
    0x00001d24   0x00000090   Dbug   RW  1064     .debug_loc          flash_ram.o
    0x00001db4   0x00000090   Dbug   RW  1069     .debug_loc          flash_ram.o
    0x00001e44   0x000000c4   Dbug   RW  1078     .debug_loc          flash_ram.o
    0x00001f08   0x000000b0   Dbug   RW  1167     .debug_loc          flash_nor_spansion.o
    0x00001fb8   0x00000084   Dbug   RW  1177     .debug_loc          flash_nor_spansion.o
    0x0000203c   0x00000070   Dbug   RW  1182     .debug_loc          flash_nor_spansion.o
    0x000020ac   0x00000184   Dbug   RW  1187     .debug_loc          flash_nor_spansion.o
    0x00002230   0x000000c4   Dbug   RW  1192     .debug_loc          flash_nor_spansion.o
    0x000022f4   0x00000104   Dbug   RW  1197     .debug_loc          flash_nor_spansion.o
    0x000023f8   0x000001a8   Dbug   RW  1202     .debug_loc          flash_nor_spansion.o
    0x000025a0   0x00000168   Dbug   RW  1207     .debug_loc          flash_nor_spansion.o
    0x00002708   0x000000b0   Dbug   RW  1308     .debug_loc          flash_nor_samsung.o
    0x000027b8   0x00000084   Dbug   RW  1313     .debug_loc          flash_nor_samsung.o
    0x0000283c   0x00000070   Dbug   RW  1318     .debug_loc          flash_nor_samsung.o
    0x000028ac   0x0000014c   Dbug   RW  1323     .debug_loc          flash_nor_samsung.o
    0x000029f8   0x0000006c   Dbug   RW  1328     .debug_loc          flash_nor_samsung.o
    0x00002a64   0x000000a0   Dbug   RW  1333     .debug_loc          flash_nor_samsung.o
    0x00002b04   0x00000124   Dbug   RW  1338     .debug_loc          flash_nor_samsung.o
    0x00002c28   0x00000148   Dbug   RW  1343     .debug_loc          flash_nor_samsung.o
    0x00002d70   0x00000168   Dbug   RW  1348     .debug_loc          flash_nor_samsung.o
    0x00002ed8   0x000001ac   Dbug   RW  1362     .debug_loc          flash_nor_samsung.o
    0x00003084   0x000000e8   Dbug   RW  1447     .debug_loc          flash_nor_intel.o
    0x0000316c   0x00000288   Dbug   RW  1452     .debug_loc          flash_nor_intel.o
    0x000033f4   0x000001f8   Dbug   RW  1457     .debug_loc          flash_nor_intel.o
    0x000035ec   0x00000290   Dbug   RW  1462     .debug_loc          flash_nor_intel.o
    0x0000387c   0x00000098   Dbug   RW  1467     .debug_loc          flash_nor_intel.o
    0x00003914   0x00000064   Dbug   RW  1472     .debug_loc          flash_nor_intel.o
    0x00003978   0x000000e0   Dbug   RW  1477     .debug_loc          flash_nor_intel.o
    0x00003a58   0x00000098   Dbug   RW  1482     .debug_loc          flash_nor_intel.o
    0x00003af0   0x0000014c   Dbug   RW  1487     .debug_loc          flash_nor_intel.o
    0x00003c3c   0x000000b8   Dbug   RW  1492     .debug_loc          flash_nor_intel.o
    0x00003cf4   0x00000064   Dbug   RW  1497     .debug_loc          flash_nor_intel.o
    0x00003d58   0x00000198   Dbug   RW  1502     .debug_loc          flash_nor_intel.o
    0x00003ef0   0x00000098   Dbug   RW  1512     .debug_loc          flash_nor_intel.o
    0x00003f88   0x000000f8   Dbug   RW  1564     .debug_loc          flash_nor_utils.o
    0x00004080   0x00000044   Dbug   RW  1793     .debug_loc          ap_uart.o
    0x000040c4   0x00000034   Dbug   RW  1802     .debug_loc          ap_uart.o
    0x000040f8   0x00000034   Dbug   RW  1812     .debug_loc          ap_uart.o
    0x0000412c   0x00000264   Dbug   RW  1822     .debug_loc          ap_uart.o
    0x00004390   0x00000064   Dbug   RW  1831     .debug_loc          ap_uart.o
    0x000043f4   0x0000006c   Dbug   RW  1836     .debug_loc          ap_uart.o
    0x00004460   0x00000000   Dbug   RW  1884     .debug_loc          qhsusb_al_hostdl.o
    0x00004460   0x00000014   Dbug   RW  1889     .debug_loc          qhsusb_al_hostdl.o
    0x00004474   0x00000034   Dbug   RW  1894     .debug_loc          qhsusb_al_hostdl.o
    0x000044a8   0x00000014   Dbug   RW  1899     .debug_loc          qhsusb_al_hostdl.o
    0x000044bc   0x00000080   Dbug   RW  1904     .debug_loc          qhsusb_al_hostdl.o
    0x0000453c   0x00000058   Dbug   RW  1913     .debug_loc          qhsusb_al_hostdl.o
    0x00004594   0x00000068   Dbug   RW  1980     .debug_loc          qhsusb_fd_hdlc.o
    0x000045fc   0x000000a0   Dbug   RW  1985     .debug_loc          qhsusb_fd_hdlc.o
    0x0000469c   0x0000006c   Dbug   RW  1995     .debug_loc          qhsusb_fd_hdlc.o
    0x00004708   0x00000014   Dbug   RW  2000     .debug_loc          qhsusb_fd_hdlc.o
    0x0000471c   0x00000020   Dbug   RW  2005     .debug_loc          qhsusb_fd_hdlc.o
    0x0000473c   0x000000a8   Dbug   RW  2010     .debug_loc          qhsusb_fd_hdlc.o
    0x000047e4   0x00000020   Dbug   RW  2015     .debug_loc          qhsusb_fd_hdlc.o
    0x00004804   0x0000004c   Dbug   RW  2024     .debug_loc          qhsusb_fd_hdlc.o
    0x00004850   0x00000134   Dbug   RW  2123     .debug_loc          qhsusb_dcd_ch9.o
    0x00004984   0x00000034   Dbug   RW  2128     .debug_loc          qhsusb_dcd_ch9.o
    0x000049b8   0x00000108   Dbug   RW  2133     .debug_loc          qhsusb_dcd_ch9.o
    0x00004ac0   0x00000104   Dbug   RW  2138     .debug_loc          qhsusb_dcd_ch9.o
    0x00004bc4   0x00000054   Dbug   RW  2143     .debug_loc          qhsusb_dcd_ch9.o
    0x00004c18   0x00000100   Dbug   RW  2148     .debug_loc          qhsusb_dcd_ch9.o
    0x00004d18   0x00000060   Dbug   RW  2153     .debug_loc          qhsusb_dcd_ch9.o
    0x00004d78   0x00000020   Dbug   RW  2158     .debug_loc          qhsusb_dcd_ch9.o
    0x00004d98   0x0000003c   Dbug   RW  2168     .debug_loc          qhsusb_dcd_ch9.o
    0x00004dd4   0x000000f0   Dbug   RW  2173     .debug_loc          qhsusb_dcd_ch9.o
    0x00004ec4   0x0000003c   Dbug   RW  2178     .debug_loc          qhsusb_dcd_ch9.o
    0x00004f00   0x00000130   Dbug   RW  2183     .debug_loc          qhsusb_dcd_ch9.o
    0x00005030   0x00000148   Dbug   RW  2188     .debug_loc          qhsusb_dcd_ch9.o
    0x00005178   0x00000100   Dbug   RW  2193     .debug_loc          qhsusb_dcd_ch9.o
    0x00005278   0x00000194   Dbug   RW  2198     .debug_loc          qhsusb_dcd_ch9.o
    0x0000540c   0x000000b4   Dbug   RW  2207     .debug_loc          qhsusb_dcd_ch9.o
    0x000054c0   0x000000a0   Dbug   RW  2301     .debug_loc          qhsusb_dci.o
    0x00005560   0x000000a4   Dbug   RW  2306     .debug_loc          qhsusb_dci.o
    0x00005604   0x00000050   Dbug   RW  2311     .debug_loc          qhsusb_dci.o
    0x00005654   0x000000a0   Dbug   RW  2316     .debug_loc          qhsusb_dci.o
    0x000056f4   0x000000a0   Dbug   RW  2321     .debug_loc          qhsusb_dci.o
    0x00005794   0x0000019c   Dbug   RW  2326     .debug_loc          qhsusb_dci.o
    0x00005930   0x000000e0   Dbug   RW  2331     .debug_loc          qhsusb_dci.o
    0x00005a10   0x00000114   Dbug   RW  2336     .debug_loc          qhsusb_dci.o
    0x00005b24   0x0000010c   Dbug   RW  2341     .debug_loc          qhsusb_dci.o
    0x00005c30   0x00000130   Dbug   RW  2351     .debug_loc          qhsusb_dci.o
    0x00005d60   0x000000a4   Dbug   RW  2361     .debug_loc          qhsusb_dci.o
    0x00005e04   0x00000034   Dbug   RW  2366     .debug_loc          qhsusb_dci.o
    0x00005e38   0x00000044   Dbug   RW  2371     .debug_loc          qhsusb_dci.o
    0x00005e7c   0x00000054   Dbug   RW  2376     .debug_loc          qhsusb_dci.o
    0x00005ed0   0x00000098   Dbug   RW  2381     .debug_loc          qhsusb_dci.o
    0x00005f68   0x000000ec   Dbug   RW  2386     .debug_loc          qhsusb_dci.o
    0x00006054   0x0000003c   Dbug   RW  2391     .debug_loc          qhsusb_dci.o
    0x00006090   0x0000010c   Dbug   RW  2400     .debug_loc          qhsusb_dci.o
    0x0000619c   0x00000014   Dbug   RW  2451     .debug_loc          qhsusb_dci_q1100.o
    0x000061b0   0x00000014   Dbug   RW  2456     .debug_loc          qhsusb_dci_q1100.o
    0x000061c4   0x00000020   Dbug   RW  2475     .debug_loc          qhsusb_dci_q1100.o
    0x000061e4   0x00000098   Dbug   RW  2535     .debug_loc          crc.o
    0x0000627c   0x00000088   Dbug   RW  2555     .debug_loc          crc.o
    0x00006304   0x00000000   Dbug   RW  2612     .debug_loc          ap_msm.o
    0x00006304   0x00000144   Dbug   RW  2669     .debug_loc          ap_flash.o
    0x00006448   0x000000e0   Dbug   RW  2684     .debug_loc          ap_flash.o
    0x00006528   0x000001ec   Dbug   RW  2689     .debug_loc          ap_flash.o
    0x00006714   0x000000b4   Dbug   RW  2694     .debug_loc          ap_flash.o
    0x000067c8   0x00000034   Dbug   RW  2699     .debug_loc          ap_flash.o
    0x000067fc   0x000000f4   Dbug   RW  2708     .debug_loc          ap_flash.o
    0x00000000   0x00000248   Dbug   RW    27     .debug_macinfo      ap_armprg.o
    0x00000248   0x000009b0   Dbug   RW   128     .debug_macinfo      ap_armprg.o
    0x00000bf8   0x000001a0   Dbug   RW   132     .debug_macinfo      ap_armprg.o
    0x00000d98   0x00000014   Dbug   RW   283     .debug_macinfo      ap_armprg.o
    0x00000dac   0x00000504   Dbug   RW   511     .debug_macinfo      ap_packet.o
    0x000012b0   0x00000274   Dbug   RW   566     .debug_macinfo      flash_msm.o
    0x00001524   0x000009bc   Dbug   RW   572     .debug_macinfo      flash_msm.o
    0x00001ee0   0x00000540   Dbug   RW   578     .debug_macinfo      flash_msm.o
    0x00002420   0x000000c4   Dbug   RW   582     .debug_macinfo      flash_msm.o
    0x000024e4   0x00000098   Dbug   RW   594     .debug_macinfo      flash_msm.o
    0x0000257c   0x0000049c   Dbug   RW   601     .debug_macinfo      flash_msm.o
    0x00002a18   0x00000270   Dbug   RW   671     .debug_macinfo      flash_common.o
    0x00002c88   0x00000060   Dbug   RW   686     .debug_macinfo      flash_common.o
    0x00002ce8   0x000002a8   Dbug   RW   956     .debug_macinfo      flash_nor.o
    0x00002f90   0x00000268   Dbug   RW  1074     .debug_macinfo      flash_ram.o
    0x000031f8   0x000003f0   Dbug   RW  1217     .debug_macinfo      flash_nor_spansion.o
    0x000035e8   0x00000360   Dbug   RW  1358     .debug_macinfo      flash_nor_samsung.o
    0x00003948   0x000007a0   Dbug   RW  1517     .debug_macinfo      flash_nor_intel.o
    0x000040e8   0x00000d44   Dbug   RW  1849     .debug_macinfo      ap_uart.o
    0x00004e2c   0x000002a0   Dbug   RW  1909     .debug_macinfo      qhsusb_al_hostdl.o
    0x000050cc   0x000000a4   Dbug   RW  1918     .debug_macinfo      qhsusb_al_hostdl.o
    0x00005170   0x00000670   Dbug   RW  1922     .debug_macinfo      qhsusb_al_hostdl.o
    0x000057e0   0x000002dc   Dbug   RW  1929     .debug_macinfo      qhsusb_al_hostdl.o
    0x00005abc   0x00000194   Dbug   RW  1933     .debug_macinfo      qhsusb_al_hostdl.o
    0x00005c50   0x000002cc   Dbug   RW  2020     .debug_macinfo      qhsusb_fd_hdlc.o
    0x00005f1c   0x00000270   Dbug   RW  2203     .debug_macinfo      qhsusb_dcd_ch9.o
    0x0000618c   0x00000280   Dbug   RW  2396     .debug_macinfo      qhsusb_dci.o
    0x0000640c   0x0000050c   Dbug   RW  2409     .debug_macinfo      qhsusb_dci.o
    0x00006918   0x00000280   Dbug   RW  2484     .debug_macinfo      qhsusb_dci_q1100.o
    0x00006b98   0x00000268   Dbug   RW  2560     .debug_macinfo      crc.o
    0x00006e00   0x00000274   Dbug   RW  2704     .debug_macinfo      ap_flash.o
    0x00007074   0x0000024c   Dbug   RW  2717     .debug_macinfo      ap_id.o
    0x00000000   0x00000030   Dbug   RW    15     .debug_pubnames     ap_armprg.o
    0x00000030   0x00000020   Dbug   RW    18     .debug_pubnames     ap_armprg.o
    0x00000050   0x00000030   Dbug   RW    21     .debug_pubnames     ap_armprg.o
    0x00000080   0x00000088   Dbug   RW    26     .debug_pubnames     ap_armprg.o
    0x00000108   0x00000020   Dbug   RW    30     .debug_pubnames     ap_armprg.o
    0x00000128   0x000000f0   Dbug   RW   127     .debug_pubnames     ap_armprg.o
    0x00000218   0x00000498   Dbug   RW   131     .debug_pubnames     ap_armprg.o
    0x000006b0   0x00000024   Dbug   RW   316     .debug_pubnames     ap_packet.o
    0x000006d4   0x00000030   Dbug   RW   319     .debug_pubnames     ap_packet.o
    0x00000704   0x00000028   Dbug   RW   322     .debug_pubnames     ap_packet.o
    0x0000072c   0x00000028   Dbug   RW   325     .debug_pubnames     ap_packet.o
    0x00000754   0x00000020   Dbug   RW   328     .debug_pubnames     ap_packet.o
    0x00000774   0x00000028   Dbug   RW   331     .debug_pubnames     ap_packet.o
    0x0000079c   0x00000030   Dbug   RW   334     .debug_pubnames     ap_packet.o
    0x000007cc   0x00000034   Dbug   RW   337     .debug_pubnames     ap_packet.o
    0x00000800   0x00000028   Dbug   RW   343     .debug_pubnames     ap_packet.o
    0x00000828   0x00000028   Dbug   RW   346     .debug_pubnames     ap_packet.o
    0x00000850   0x00000024   Dbug   RW   349     .debug_pubnames     ap_packet.o
    0x00000874   0x0000002c   Dbug   RW   352     .debug_pubnames     ap_packet.o
    0x000008a0   0x00000024   Dbug   RW   355     .debug_pubnames     ap_packet.o
    0x000008c4   0x0000002c   Dbug   RW   358     .debug_pubnames     ap_packet.o
    0x000008f0   0x0000002c   Dbug   RW   361     .debug_pubnames     ap_packet.o
    0x0000091c   0x00000024   Dbug   RW   364     .debug_pubnames     ap_packet.o
    0x00000940   0x00000028   Dbug   RW   367     .debug_pubnames     ap_packet.o
    0x00000968   0x00000024   Dbug   RW   370     .debug_pubnames     ap_packet.o
    0x0000098c   0x00000024   Dbug   RW   373     .debug_pubnames     ap_packet.o
    0x000009b0   0x0000002c   Dbug   RW   376     .debug_pubnames     ap_packet.o
    0x000009dc   0x00000028   Dbug   RW   379     .debug_pubnames     ap_packet.o
    0x00000a04   0x00000028   Dbug   RW   382     .debug_pubnames     ap_packet.o
    0x00000a2c   0x00000028   Dbug   RW   385     .debug_pubnames     ap_packet.o
    0x00000a54   0x00000024   Dbug   RW   388     .debug_pubnames     ap_packet.o
    0x00000a78   0x00000024   Dbug   RW   391     .debug_pubnames     ap_packet.o
    0x00000a9c   0x00000030   Dbug   RW   396     .debug_pubnames     ap_packet.o
    0x00000acc   0x00000028   Dbug   RW   400     .debug_pubnames     ap_packet.o
    0x00000af4   0x00000028   Dbug   RW   405     .debug_pubnames     ap_packet.o
    0x00000b1c   0x00000020   Dbug   RW   410     .debug_pubnames     ap_packet.o
    0x00000b3c   0x00000028   Dbug   RW   415     .debug_pubnames     ap_packet.o
    0x00000b64   0x00000030   Dbug   RW   420     .debug_pubnames     ap_packet.o
    0x00000b94   0x00000034   Dbug   RW   425     .debug_pubnames     ap_packet.o
    0x00000bc8   0x00000028   Dbug   RW   435     .debug_pubnames     ap_packet.o
    0x00000bf0   0x00000028   Dbug   RW   440     .debug_pubnames     ap_packet.o
    0x00000c18   0x00000024   Dbug   RW   445     .debug_pubnames     ap_packet.o
    0x00000c3c   0x0000002c   Dbug   RW   450     .debug_pubnames     ap_packet.o
    0x00000c68   0x00000024   Dbug   RW   455     .debug_pubnames     ap_packet.o
    0x00000c8c   0x0000002c   Dbug   RW   460     .debug_pubnames     ap_packet.o
    0x00000cb8   0x0000002c   Dbug   RW   465     .debug_pubnames     ap_packet.o
    0x00000ce4   0x00000024   Dbug   RW   470     .debug_pubnames     ap_packet.o
    0x00000d08   0x00000028   Dbug   RW   475     .debug_pubnames     ap_packet.o
    0x00000d30   0x00000024   Dbug   RW   480     .debug_pubnames     ap_packet.o
    0x00000d54   0x00000024   Dbug   RW   485     .debug_pubnames     ap_packet.o
    0x00000d78   0x0000002c   Dbug   RW   490     .debug_pubnames     ap_packet.o
    0x00000da4   0x00000028   Dbug   RW   495     .debug_pubnames     ap_packet.o
    0x00000dcc   0x00000028   Dbug   RW   500     .debug_pubnames     ap_packet.o
    0x00000df4   0x00000028   Dbug   RW   505     .debug_pubnames     ap_packet.o
    0x00000e1c   0x00000174   Dbug   RW   510     .debug_pubnames     ap_packet.o
    0x00000f90   0x00000024   Dbug   RW   514     .debug_pubnames     ap_packet.o
    0x00000fb4   0x00000498   Dbug   RW   518     .debug_pubnames     ap_packet.o
    0x0000144c   0x00000034   Dbug   RW   542     .debug_pubnames     flash_msm.o
    0x00001480   0x00000030   Dbug   RW   545     .debug_pubnames     flash_msm.o
    0x000014b0   0x00000030   Dbug   RW   548     .debug_pubnames     flash_msm.o
    0x000014e0   0x00000034   Dbug   RW   555     .debug_pubnames     flash_msm.o
    0x00001514   0x00000030   Dbug   RW   560     .debug_pubnames     flash_msm.o
    0x00001544   0x00000068   Dbug   RW   565     .debug_pubnames     flash_msm.o
    0x000015ac   0x00000030   Dbug   RW   569     .debug_pubnames     flash_msm.o
    0x000015dc   0x000000f0   Dbug   RW   574     .debug_pubnames     flash_msm.o
    0x000016cc   0x000002f0   Dbug   RW   577     .debug_pubnames     flash_msm.o
    0x000019bc   0x00000038   Dbug   RW   581     .debug_pubnames     flash_msm.o
    0x000019f4   0x000004d8   Dbug   RW   593     .debug_pubnames     flash_msm.o
    0x00001ecc   0x000001d4   Dbug   RW   600     .debug_pubnames     flash_msm.o
    0x000020a0   0x00000498   Dbug   RW   607     .debug_pubnames     flash_msm.o
    0x00002538   0x00000038   Dbug   RW   645     .debug_pubnames     flash_common.o
    0x00002570   0x00000038   Dbug   RW   648     .debug_pubnames     flash_common.o
    0x000025a8   0x00000038   Dbug   RW   651     .debug_pubnames     flash_common.o
    0x000025e0   0x00000024   Dbug   RW   654     .debug_pubnames     flash_common.o
    0x00002604   0x00000024   Dbug   RW   657     .debug_pubnames     flash_common.o
    0x00002628   0x00000024   Dbug   RW   660     .debug_pubnames     flash_common.o
    0x0000264c   0x00000024   Dbug   RW   665     .debug_pubnames     flash_common.o
    0x00002670   0x00000098   Dbug   RW   670     .debug_pubnames     flash_common.o
    0x00002708   0x00000038   Dbug   RW   674     .debug_pubnames     flash_common.o
    0x00002740   0x000001d4   Dbug   RW   678     .debug_pubnames     flash_common.o
    0x00002914   0x000003a8   Dbug   RW   685     .debug_pubnames     flash_common.o
    0x00002cbc   0x00000024   Dbug   RW   719     .debug_pubnames     flash_os_none.o
    0x00002ce0   0x00000024   Dbug   RW   722     .debug_pubnames     flash_os_none.o
    0x00002d04   0x00000024   Dbug   RW   751     .debug_pubnames     flash_os_none.o
    0x00002d28   0x00000024   Dbug   RW   759     .debug_pubnames     flash_os_none.o
    0x00002d4c   0x00000024   Dbug   RW   789     .debug_pubnames     flash_nor.o
    0x00002d70   0x00000030   Dbug   RW   792     .debug_pubnames     flash_nor.o
    0x00002da0   0x00000038   Dbug   RW   795     .debug_pubnames     flash_nor.o
    0x00002dd8   0x00000030   Dbug   RW   798     .debug_pubnames     flash_nor.o
    0x00002e08   0x00000034   Dbug   RW   801     .debug_pubnames     flash_nor.o
    0x00002e3c   0x00000030   Dbug   RW   804     .debug_pubnames     flash_nor.o
    0x00002e6c   0x00000034   Dbug   RW   807     .debug_pubnames     flash_nor.o
    0x00002ea0   0x00000030   Dbug   RW   810     .debug_pubnames     flash_nor.o
    0x00002ed0   0x00000034   Dbug   RW   813     .debug_pubnames     flash_nor.o
    0x00002f04   0x00000030   Dbug   RW   816     .debug_pubnames     flash_nor.o
    0x00002f34   0x00000034   Dbug   RW   819     .debug_pubnames     flash_nor.o
    0x00002f68   0x00000034   Dbug   RW   822     .debug_pubnames     flash_nor.o
    0x00002f9c   0x00000038   Dbug   RW   825     .debug_pubnames     flash_nor.o
    0x00002fd4   0x00000034   Dbug   RW   828     .debug_pubnames     flash_nor.o
    0x00003008   0x00000034   Dbug   RW   831     .debug_pubnames     flash_nor.o
    0x0000303c   0x00000038   Dbug   RW   834     .debug_pubnames     flash_nor.o
    0x00003074   0x0000002c   Dbug   RW   837     .debug_pubnames     flash_nor.o
    0x000030a0   0x00000030   Dbug   RW   840     .debug_pubnames     flash_nor.o
    0x000030d0   0x00000030   Dbug   RW   843     .debug_pubnames     flash_nor.o
    0x00003100   0x00000030   Dbug   RW   846     .debug_pubnames     flash_nor.o
    0x00003130   0x00000034   Dbug   RW   849     .debug_pubnames     flash_nor.o
    0x00003164   0x0000003c   Dbug   RW   852     .debug_pubnames     flash_nor.o
    0x000031a0   0x00000024   Dbug   RW   855     .debug_pubnames     flash_nor.o
    0x000031c4   0x00000030   Dbug   RW   860     .debug_pubnames     flash_nor.o
    0x000031f4   0x00000038   Dbug   RW   865     .debug_pubnames     flash_nor.o
    0x0000322c   0x00000030   Dbug   RW   870     .debug_pubnames     flash_nor.o
    0x0000325c   0x00000030   Dbug   RW   875     .debug_pubnames     flash_nor.o
    0x0000328c   0x00000034   Dbug   RW   880     .debug_pubnames     flash_nor.o
    0x000032c0   0x00000030   Dbug   RW   885     .debug_pubnames     flash_nor.o
    0x000032f0   0x00000034   Dbug   RW   890     .debug_pubnames     flash_nor.o
    0x00003324   0x00000030   Dbug   RW   895     .debug_pubnames     flash_nor.o
    0x00003354   0x00000034   Dbug   RW   900     .debug_pubnames     flash_nor.o
    0x00003388   0x00000034   Dbug   RW   905     .debug_pubnames     flash_nor.o
    0x000033bc   0x00000038   Dbug   RW   910     .debug_pubnames     flash_nor.o
    0x000033f4   0x00000034   Dbug   RW   915     .debug_pubnames     flash_nor.o
    0x00003428   0x00000034   Dbug   RW   920     .debug_pubnames     flash_nor.o
    0x0000345c   0x00000038   Dbug   RW   925     .debug_pubnames     flash_nor.o
    0x00003494   0x0000002c   Dbug   RW   930     .debug_pubnames     flash_nor.o
    0x000034c0   0x00000030   Dbug   RW   935     .debug_pubnames     flash_nor.o
    0x000034f0   0x00000030   Dbug   RW   940     .debug_pubnames     flash_nor.o
    0x00003520   0x00000030   Dbug   RW   945     .debug_pubnames     flash_nor.o
    0x00003550   0x00000034   Dbug   RW   950     .debug_pubnames     flash_nor.o
    0x00003584   0x000000a8   Dbug   RW   955     .debug_pubnames     flash_nor.o
    0x0000362c   0x0000003c   Dbug   RW   959     .debug_pubnames     flash_nor.o
    0x00003668   0x00000028   Dbug   RW  1006     .debug_pubnames     flash_ram.o
    0x00003690   0x00000034   Dbug   RW  1009     .debug_pubnames     flash_ram.o
    0x000036c4   0x00000034   Dbug   RW  1012     .debug_pubnames     flash_ram.o
    0x000036f8   0x00000030   Dbug   RW  1021     .debug_pubnames     flash_ram.o
    0x00003728   0x00000034   Dbug   RW  1024     .debug_pubnames     flash_ram.o
    0x0000375c   0x00000034   Dbug   RW  1027     .debug_pubnames     flash_ram.o
    0x00003790   0x00000028   Dbug   RW  1030     .debug_pubnames     flash_ram.o
    0x000037b8   0x00000028   Dbug   RW  1033     .debug_pubnames     flash_ram.o
    0x000037e0   0x00000034   Dbug   RW  1038     .debug_pubnames     flash_ram.o
    0x00003814   0x00000034   Dbug   RW  1043     .debug_pubnames     flash_ram.o
    0x00003848   0x00000030   Dbug   RW  1058     .debug_pubnames     flash_ram.o
    0x00003878   0x00000034   Dbug   RW  1063     .debug_pubnames     flash_ram.o
    0x000038ac   0x00000034   Dbug   RW  1068     .debug_pubnames     flash_ram.o
    0x000038e0   0x0000002c   Dbug   RW  1073     .debug_pubnames     flash_ram.o
    0x0000390c   0x00000028   Dbug   RW  1077     .debug_pubnames     flash_ram.o
    0x00003934   0x00000028   Dbug   RW  1133     .debug_pubnames     flash_nor_spansion.o
    0x0000395c   0x00000030   Dbug   RW  1139     .debug_pubnames     flash_nor_spansion.o
    0x0000398c   0x00000030   Dbug   RW  1142     .debug_pubnames     flash_nor_spansion.o
    0x000039bc   0x0000002c   Dbug   RW  1145     .debug_pubnames     flash_nor_spansion.o
    0x000039e8   0x0000002c   Dbug   RW  1148     .debug_pubnames     flash_nor_spansion.o
    0x00003a14   0x00000030   Dbug   RW  1151     .debug_pubnames     flash_nor_spansion.o
    0x00003a44   0x00000030   Dbug   RW  1154     .debug_pubnames     flash_nor_spansion.o
    0x00003a74   0x0000002c   Dbug   RW  1157     .debug_pubnames     flash_nor_spansion.o
    0x00003aa0   0x00000028   Dbug   RW  1166     .debug_pubnames     flash_nor_spansion.o
    0x00003ac8   0x00000030   Dbug   RW  1176     .debug_pubnames     flash_nor_spansion.o
    0x00003af8   0x00000030   Dbug   RW  1181     .debug_pubnames     flash_nor_spansion.o
    0x00003b28   0x0000002c   Dbug   RW  1186     .debug_pubnames     flash_nor_spansion.o
    0x00003b54   0x0000002c   Dbug   RW  1191     .debug_pubnames     flash_nor_spansion.o
    0x00003b80   0x00000030   Dbug   RW  1196     .debug_pubnames     flash_nor_spansion.o
    0x00003bb0   0x00000030   Dbug   RW  1201     .debug_pubnames     flash_nor_spansion.o
    0x00003be0   0x0000002c   Dbug   RW  1206     .debug_pubnames     flash_nor_spansion.o
    0x00003c0c   0x000000ec   Dbug   RW  1216     .debug_pubnames     flash_nor_spansion.o
    0x00003cf8   0x000002f0   Dbug   RW  1227     .debug_pubnames     flash_nor_spansion.o
    0x00003fe8   0x00000038   Dbug   RW  1229     .debug_pubnames     flash_nor_spansion.o
    0x00004020   0x000004d8   Dbug   RW  1233     .debug_pubnames     flash_nor_spansion.o
    0x000044f8   0x000001d4   Dbug   RW  1235     .debug_pubnames     flash_nor_spansion.o
    0x000046cc   0x00000028   Dbug   RW  1274     .debug_pubnames     flash_nor_samsung.o
    0x000046f4   0x00000030   Dbug   RW  1277     .debug_pubnames     flash_nor_samsung.o
    0x00004724   0x00000030   Dbug   RW  1280     .debug_pubnames     flash_nor_samsung.o
    0x00004754   0x0000002c   Dbug   RW  1283     .debug_pubnames     flash_nor_samsung.o
    0x00004780   0x0000002c   Dbug   RW  1286     .debug_pubnames     flash_nor_samsung.o
    0x000047ac   0x00000034   Dbug   RW  1289     .debug_pubnames     flash_nor_samsung.o
    0x000047e0   0x0000002c   Dbug   RW  1292     .debug_pubnames     flash_nor_samsung.o
    0x0000480c   0x00000030   Dbug   RW  1295     .debug_pubnames     flash_nor_samsung.o
    0x0000483c   0x00000028   Dbug   RW  1298     .debug_pubnames     flash_nor_samsung.o
    0x00004864   0x00000034   Dbug   RW  1304     .debug_pubnames     flash_nor_samsung.o
    0x00004898   0x00000028   Dbug   RW  1307     .debug_pubnames     flash_nor_samsung.o
    0x000048c0   0x00000030   Dbug   RW  1312     .debug_pubnames     flash_nor_samsung.o
    0x000048f0   0x00000030   Dbug   RW  1317     .debug_pubnames     flash_nor_samsung.o
    0x00004920   0x0000002c   Dbug   RW  1322     .debug_pubnames     flash_nor_samsung.o
    0x0000494c   0x0000002c   Dbug   RW  1327     .debug_pubnames     flash_nor_samsung.o
    0x00004978   0x00000034   Dbug   RW  1332     .debug_pubnames     flash_nor_samsung.o
    0x000049ac   0x0000002c   Dbug   RW  1337     .debug_pubnames     flash_nor_samsung.o
    0x000049d8   0x00000030   Dbug   RW  1342     .debug_pubnames     flash_nor_samsung.o
    0x00004a08   0x00000028   Dbug   RW  1347     .debug_pubnames     flash_nor_samsung.o
    0x00004a30   0x000000ec   Dbug   RW  1357     .debug_pubnames     flash_nor_samsung.o
    0x00004b1c   0x00000034   Dbug   RW  1361     .debug_pubnames     flash_nor_samsung.o
    0x00004b50   0x000001d4   Dbug   RW  1365     .debug_pubnames     flash_nor_samsung.o
    0x00004d24   0x00000038   Dbug   RW  1401     .debug_pubnames     flash_nor_intel.o
    0x00004d5c   0x00000034   Dbug   RW  1404     .debug_pubnames     flash_nor_intel.o
    0x00004d90   0x0000003c   Dbug   RW  1407     .debug_pubnames     flash_nor_intel.o
    0x00004dcc   0x00000030   Dbug   RW  1410     .debug_pubnames     flash_nor_intel.o
    0x00004dfc   0x00000024   Dbug   RW  1413     .debug_pubnames     flash_nor_intel.o
    0x00004e20   0x00000038   Dbug   RW  1416     .debug_pubnames     flash_nor_intel.o
    0x00004e58   0x00000030   Dbug   RW  1419     .debug_pubnames     flash_nor_intel.o
    0x00004e88   0x00000030   Dbug   RW  1422     .debug_pubnames     flash_nor_intel.o
    0x00004eb8   0x00000030   Dbug   RW  1425     .debug_pubnames     flash_nor_intel.o
    0x00004ee8   0x0000002c   Dbug   RW  1428     .debug_pubnames     flash_nor_intel.o
    0x00004f14   0x0000002c   Dbug   RW  1431     .debug_pubnames     flash_nor_intel.o
    0x00004f40   0x0000002c   Dbug   RW  1434     .debug_pubnames     flash_nor_intel.o
    0x00004f6c   0x00000030   Dbug   RW  1440     .debug_pubnames     flash_nor_intel.o
    0x00004f9c   0x00000038   Dbug   RW  1446     .debug_pubnames     flash_nor_intel.o
    0x00004fd4   0x00000034   Dbug   RW  1451     .debug_pubnames     flash_nor_intel.o
    0x00005008   0x0000003c   Dbug   RW  1456     .debug_pubnames     flash_nor_intel.o
    0x00005044   0x00000030   Dbug   RW  1461     .debug_pubnames     flash_nor_intel.o
    0x00005074   0x00000024   Dbug   RW  1466     .debug_pubnames     flash_nor_intel.o
    0x00005098   0x00000038   Dbug   RW  1471     .debug_pubnames     flash_nor_intel.o
    0x000050d0   0x00000030   Dbug   RW  1476     .debug_pubnames     flash_nor_intel.o
    0x00005100   0x00000030   Dbug   RW  1481     .debug_pubnames     flash_nor_intel.o
    0x00005130   0x00000030   Dbug   RW  1486     .debug_pubnames     flash_nor_intel.o
    0x00005160   0x0000002c   Dbug   RW  1491     .debug_pubnames     flash_nor_intel.o
    0x0000518c   0x0000002c   Dbug   RW  1496     .debug_pubnames     flash_nor_intel.o
    0x000051b8   0x0000002c   Dbug   RW  1501     .debug_pubnames     flash_nor_intel.o
    0x000051e4   0x00000030   Dbug   RW  1511     .debug_pubnames     flash_nor_intel.o
    0x00005214   0x000001f4   Dbug   RW  1516     .debug_pubnames     flash_nor_intel.o
    0x00005408   0x000001d4   Dbug   RW  1524     .debug_pubnames     flash_nor_intel.o
    0x000055dc   0x000003a8   Dbug   RW  1526     .debug_pubnames     flash_nor_intel.o
    0x00005984   0x0000003c   Dbug   RW  1542     .debug_pubnames     flash_nor_utils.o
    0x000059c0   0x0000003c   Dbug   RW  1563     .debug_pubnames     flash_nor_utils.o
    0x000059fc   0x00000024   Dbug   RW  1740     .debug_pubnames     ap_uart.o
    0x00005a20   0x00000024   Dbug   RW  1743     .debug_pubnames     ap_uart.o
    0x00005a44   0x0000002c   Dbug   RW  1746     .debug_pubnames     ap_uart.o
    0x00005a70   0x00000030   Dbug   RW  1749     .debug_pubnames     ap_uart.o
    0x00005aa0   0x00000030   Dbug   RW  1752     .debug_pubnames     ap_uart.o
    0x00005ad0   0x00000038   Dbug   RW  1755     .debug_pubnames     ap_uart.o
    0x00005b08   0x00000034   Dbug   RW  1758     .debug_pubnames     ap_uart.o
    0x00005b3c   0x00000024   Dbug   RW  1761     .debug_pubnames     ap_uart.o
    0x00005b60   0x0000002c   Dbug   RW  1767     .debug_pubnames     ap_uart.o
    0x00005b8c   0x0000002c   Dbug   RW  1773     .debug_pubnames     ap_uart.o
    0x00005bb8   0x00000028   Dbug   RW  1776     .debug_pubnames     ap_uart.o
    0x00005be0   0x00000030   Dbug   RW  1779     .debug_pubnames     ap_uart.o
    0x00005c10   0x0000002c   Dbug   RW  1782     .debug_pubnames     ap_uart.o
    0x00005c3c   0x00000024   Dbug   RW  1785     .debug_pubnames     ap_uart.o
    0x00005c60   0x00000024   Dbug   RW  1788     .debug_pubnames     ap_uart.o
    0x00005c84   0x00000024   Dbug   RW  1792     .debug_pubnames     ap_uart.o
    0x00005ca8   0x00000034   Dbug   RW  1797     .debug_pubnames     ap_uart.o
    0x00005cdc   0x00000024   Dbug   RW  1801     .debug_pubnames     ap_uart.o
    0x00005d00   0x0000002c   Dbug   RW  1811     .debug_pubnames     ap_uart.o
    0x00005d2c   0x0000002c   Dbug   RW  1821     .debug_pubnames     ap_uart.o
    0x00005d58   0x00000028   Dbug   RW  1826     .debug_pubnames     ap_uart.o
    0x00005d80   0x00000030   Dbug   RW  1830     .debug_pubnames     ap_uart.o
    0x00005db0   0x0000002c   Dbug   RW  1835     .debug_pubnames     ap_uart.o
    0x00005ddc   0x00000024   Dbug   RW  1840     .debug_pubnames     ap_uart.o
    0x00005e00   0x0000002c   Dbug   RW  1844     .debug_pubnames     ap_uart.o
    0x00005e2c   0x00000090   Dbug   RW  1848     .debug_pubnames     ap_uart.o
    0x00005ebc   0x00000038   Dbug   RW  1852     .debug_pubnames     ap_uart.o
    0x00005ef4   0x00000024   Dbug   RW  1865     .debug_pubnames     qhsusb_al_hostdl.o
    0x00005f18   0x00000028   Dbug   RW  1868     .debug_pubnames     qhsusb_al_hostdl.o
    0x00005f40   0x00000020   Dbug   RW  1871     .debug_pubnames     qhsusb_al_hostdl.o
    0x00005f60   0x00000024   Dbug   RW  1874     .debug_pubnames     qhsusb_al_hostdl.o
    0x00005f84   0x00000028   Dbug   RW  1877     .debug_pubnames     qhsusb_al_hostdl.o
    0x00005fac   0x00000020   Dbug   RW  1880     .debug_pubnames     qhsusb_al_hostdl.o
    0x00005fcc   0x00000024   Dbug   RW  1883     .debug_pubnames     qhsusb_al_hostdl.o
    0x00005ff0   0x00000028   Dbug   RW  1888     .debug_pubnames     qhsusb_al_hostdl.o
    0x00006018   0x00000020   Dbug   RW  1893     .debug_pubnames     qhsusb_al_hostdl.o
    0x00006038   0x00000024   Dbug   RW  1898     .debug_pubnames     qhsusb_al_hostdl.o
    0x0000605c   0x00000020   Dbug   RW  1903     .debug_pubnames     qhsusb_al_hostdl.o
    0x0000607c   0x00000048   Dbug   RW  1908     .debug_pubnames     qhsusb_al_hostdl.o
    0x000060c4   0x00000028   Dbug   RW  1912     .debug_pubnames     qhsusb_al_hostdl.o
    0x000060ec   0x0000004c   Dbug   RW  1917     .debug_pubnames     qhsusb_al_hostdl.o
    0x00006138   0x0000017c   Dbug   RW  1921     .debug_pubnames     qhsusb_al_hostdl.o
    0x000062b4   0x000001a4   Dbug   RW  1932     .debug_pubnames     qhsusb_al_hostdl.o
    0x00006458   0x00000024   Dbug   RW  1952     .debug_pubnames     qhsusb_fd_hdlc.o
    0x0000647c   0x00000028   Dbug   RW  1955     .debug_pubnames     qhsusb_fd_hdlc.o
    0x000064a4   0x00000028   Dbug   RW  1958     .debug_pubnames     qhsusb_fd_hdlc.o
    0x000064cc   0x00000028   Dbug   RW  1961     .debug_pubnames     qhsusb_fd_hdlc.o
    0x000064f4   0x0000002c   Dbug   RW  1964     .debug_pubnames     qhsusb_fd_hdlc.o
    0x00006520   0x00000030   Dbug   RW  1970     .debug_pubnames     qhsusb_fd_hdlc.o
    0x00006550   0x00000034   Dbug   RW  1973     .debug_pubnames     qhsusb_fd_hdlc.o
    0x00006584   0x00000034   Dbug   RW  1976     .debug_pubnames     qhsusb_fd_hdlc.o
    0x000065b8   0x00000028   Dbug   RW  1979     .debug_pubnames     qhsusb_fd_hdlc.o
    0x000065e0   0x0000002c   Dbug   RW  1984     .debug_pubnames     qhsusb_fd_hdlc.o
    0x0000660c   0x00000030   Dbug   RW  1994     .debug_pubnames     qhsusb_fd_hdlc.o
    0x0000663c   0x00000034   Dbug   RW  1999     .debug_pubnames     qhsusb_fd_hdlc.o
    0x00006670   0x00000034   Dbug   RW  2004     .debug_pubnames     qhsusb_fd_hdlc.o
    0x000066a4   0x00000024   Dbug   RW  2009     .debug_pubnames     qhsusb_fd_hdlc.o
    0x000066c8   0x00000028   Dbug   RW  2014     .debug_pubnames     qhsusb_fd_hdlc.o
    0x000066f0   0x00000170   Dbug   RW  2019     .debug_pubnames     qhsusb_fd_hdlc.o
    0x00006860   0x00000028   Dbug   RW  2023     .debug_pubnames     qhsusb_fd_hdlc.o
    0x00006888   0x0000002c   Dbug   RW  2050     .debug_pubnames     qhsusb_dcd_ch9.o
    0x000068b4   0x00000024   Dbug   RW  2053     .debug_pubnames     qhsusb_dcd_ch9.o
    0x000068d8   0x0000002c   Dbug   RW  2056     .debug_pubnames     qhsusb_dcd_ch9.o
    0x00006904   0x00000020   Dbug   RW  2059     .debug_pubnames     qhsusb_dcd_ch9.o
    0x00006924   0x00000020   Dbug   RW  2062     .debug_pubnames     qhsusb_dcd_ch9.o
    0x00006944   0x00000024   Dbug   RW  2065     .debug_pubnames     qhsusb_dcd_ch9.o
    0x00006968   0x00000024   Dbug   RW  2068     .debug_pubnames     qhsusb_dcd_ch9.o
    0x0000698c   0x0000002c   Dbug   RW  2071     .debug_pubnames     qhsusb_dcd_ch9.o
    0x000069b8   0x00000028   Dbug   RW  2074     .debug_pubnames     qhsusb_dcd_ch9.o
    0x000069e0   0x0000002c   Dbug   RW  2077     .debug_pubnames     qhsusb_dcd_ch9.o
    0x00006a0c   0x00000028   Dbug   RW  2080     .debug_pubnames     qhsusb_dcd_ch9.o
    0x00006a34   0x00000034   Dbug   RW  2083     .debug_pubnames     qhsusb_dcd_ch9.o
    0x00006a68   0x00000028   Dbug   RW  2086     .debug_pubnames     qhsusb_dcd_ch9.o
    0x00006a90   0x0000002c   Dbug   RW  2089     .debug_pubnames     qhsusb_dcd_ch9.o
    0x00006abc   0x00000028   Dbug   RW  2092     .debug_pubnames     qhsusb_dcd_ch9.o
    0x00006ae4   0x00000028   Dbug   RW  2095     .debug_pubnames     qhsusb_dcd_ch9.o
    0x00006b0c   0x00000028   Dbug   RW  2098     .debug_pubnames     qhsusb_dcd_ch9.o
    0x00006b34   0x00000028   Dbug   RW  2101     .debug_pubnames     qhsusb_dcd_ch9.o
    0x00006b5c   0x00000038   Dbug   RW  2104     .debug_pubnames     qhsusb_dcd_ch9.o
    0x00006b94   0x0000002c   Dbug   RW  2107     .debug_pubnames     qhsusb_dcd_ch9.o
    0x00006bc0   0x0000002c   Dbug   RW  2110     .debug_pubnames     qhsusb_dcd_ch9.o
    0x00006bec   0x00000028   Dbug   RW  2113     .debug_pubnames     qhsusb_dcd_ch9.o
    0x00006c14   0x00000028   Dbug   RW  2116     .debug_pubnames     qhsusb_dcd_ch9.o
    0x00006c3c   0x0000002c   Dbug   RW  2122     .debug_pubnames     qhsusb_dcd_ch9.o
    0x00006c68   0x00000028   Dbug   RW  2127     .debug_pubnames     qhsusb_dcd_ch9.o
    0x00006c90   0x00000034   Dbug   RW  2132     .debug_pubnames     qhsusb_dcd_ch9.o
    0x00006cc4   0x00000038   Dbug   RW  2137     .debug_pubnames     qhsusb_dcd_ch9.o
    0x00006cfc   0x0000002c   Dbug   RW  2142     .debug_pubnames     qhsusb_dcd_ch9.o
    0x00006d28   0x0000002c   Dbug   RW  2147     .debug_pubnames     qhsusb_dcd_ch9.o
    0x00006d54   0x00000028   Dbug   RW  2152     .debug_pubnames     qhsusb_dcd_ch9.o
    0x00006d7c   0x00000028   Dbug   RW  2157     .debug_pubnames     qhsusb_dcd_ch9.o
    0x00006da4   0x00000024   Dbug   RW  2167     .debug_pubnames     qhsusb_dcd_ch9.o
    0x00006dc8   0x00000028   Dbug   RW  2172     .debug_pubnames     qhsusb_dcd_ch9.o
    0x00006df0   0x00000028   Dbug   RW  2177     .debug_pubnames     qhsusb_dcd_ch9.o
    0x00006e18   0x00000028   Dbug   RW  2182     .debug_pubnames     qhsusb_dcd_ch9.o
    0x00006e40   0x00000028   Dbug   RW  2187     .debug_pubnames     qhsusb_dcd_ch9.o
    0x00006e68   0x00000028   Dbug   RW  2192     .debug_pubnames     qhsusb_dcd_ch9.o
    0x00006e90   0x0000002c   Dbug   RW  2197     .debug_pubnames     qhsusb_dcd_ch9.o
    0x00006ebc   0x00000024   Dbug   RW  2202     .debug_pubnames     qhsusb_dcd_ch9.o
    0x00006ee0   0x00000028   Dbug   RW  2206     .debug_pubnames     qhsusb_dcd_ch9.o
    0x00006f08   0x00000034   Dbug   RW  2210     .debug_pubnames     qhsusb_dcd_ch9.o
    0x00006f3c   0x00000028   Dbug   RW  2234     .debug_pubnames     qhsusb_dci.o
    0x00006f64   0x00000028   Dbug   RW  2237     .debug_pubnames     qhsusb_dci.o
    0x00006f8c   0x00000028   Dbug   RW  2240     .debug_pubnames     qhsusb_dci.o
    0x00006fb4   0x00000034   Dbug   RW  2243     .debug_pubnames     qhsusb_dci.o
    0x00006fe8   0x00000038   Dbug   RW  2246     .debug_pubnames     qhsusb_dci.o
    0x00007020   0x0000002c   Dbug   RW  2249     .debug_pubnames     qhsusb_dci.o
    0x0000704c   0x0000002c   Dbug   RW  2252     .debug_pubnames     qhsusb_dci.o
    0x00007078   0x00000030   Dbug   RW  2255     .debug_pubnames     qhsusb_dci.o
    0x000070a8   0x00000030   Dbug   RW  2258     .debug_pubnames     qhsusb_dci.o
    0x000070d8   0x00000030   Dbug   RW  2261     .debug_pubnames     qhsusb_dci.o
    0x00007108   0x00000034   Dbug   RW  2264     .debug_pubnames     qhsusb_dci.o
    0x0000713c   0x00000034   Dbug   RW  2267     .debug_pubnames     qhsusb_dci.o
    0x00007170   0x00000034   Dbug   RW  2270     .debug_pubnames     qhsusb_dci.o
    0x000071a4   0x0000002c   Dbug   RW  2273     .debug_pubnames     qhsusb_dci.o
    0x000071d0   0x00000034   Dbug   RW  2276     .debug_pubnames     qhsusb_dci.o
    0x00007204   0x00000034   Dbug   RW  2279     .debug_pubnames     qhsusb_dci.o
    0x00007238   0x00000030   Dbug   RW  2285     .debug_pubnames     qhsusb_dci.o
    0x00007268   0x00000030   Dbug   RW  2291     .debug_pubnames     qhsusb_dci.o
    0x00007298   0x0000002c   Dbug   RW  2294     .debug_pubnames     qhsusb_dci.o
    0x000072c4   0x00000030   Dbug   RW  2297     .debug_pubnames     qhsusb_dci.o
    0x000072f4   0x00000028   Dbug   RW  2300     .debug_pubnames     qhsusb_dci.o
    0x0000731c   0x00000030   Dbug   RW  2305     .debug_pubnames     qhsusb_dci.o
    0x0000734c   0x00000030   Dbug   RW  2310     .debug_pubnames     qhsusb_dci.o
    0x0000737c   0x00000030   Dbug   RW  2315     .debug_pubnames     qhsusb_dci.o
    0x000073ac   0x00000034   Dbug   RW  2320     .debug_pubnames     qhsusb_dci.o
    0x000073e0   0x00000034   Dbug   RW  2325     .debug_pubnames     qhsusb_dci.o
    0x00007414   0x00000034   Dbug   RW  2330     .debug_pubnames     qhsusb_dci.o
    0x00007448   0x00000034   Dbug   RW  2335     .debug_pubnames     qhsusb_dci.o
    0x0000747c   0x00000034   Dbug   RW  2340     .debug_pubnames     qhsusb_dci.o
    0x000074b0   0x00000030   Dbug   RW  2350     .debug_pubnames     qhsusb_dci.o
    0x000074e0   0x00000030   Dbug   RW  2360     .debug_pubnames     qhsusb_dci.o
    0x00007510   0x0000002c   Dbug   RW  2365     .debug_pubnames     qhsusb_dci.o
    0x0000753c   0x00000030   Dbug   RW  2370     .debug_pubnames     qhsusb_dci.o
    0x0000756c   0x00000028   Dbug   RW  2375     .debug_pubnames     qhsusb_dci.o
    0x00007594   0x00000028   Dbug   RW  2380     .debug_pubnames     qhsusb_dci.o
    0x000075bc   0x00000034   Dbug   RW  2385     .debug_pubnames     qhsusb_dci.o
    0x000075f0   0x00000038   Dbug   RW  2390     .debug_pubnames     qhsusb_dci.o
    0x00007628   0x00000094   Dbug   RW  2395     .debug_pubnames     qhsusb_dci.o
    0x000076bc   0x0000002c   Dbug   RW  2399     .debug_pubnames     qhsusb_dci.o
    0x000076e8   0x0000004c   Dbug   RW  2403     .debug_pubnames     qhsusb_dci.o
    0x00007734   0x00000034   Dbug   RW  2405     .debug_pubnames     qhsusb_dci.o
    0x00007768   0x000002f0   Dbug   RW  2408     .debug_pubnames     qhsusb_dci.o
    0x00007a58   0x00000030   Dbug   RW  2426     .debug_pubnames     qhsusb_dci_q1100.o
    0x00007a88   0x00000034   Dbug   RW  2429     .debug_pubnames     qhsusb_dci_q1100.o
    0x00007abc   0x0000002c   Dbug   RW  2435     .debug_pubnames     qhsusb_dci_q1100.o
    0x00007ae8   0x00000024   Dbug   RW  2441     .debug_pubnames     qhsusb_dci_q1100.o
    0x00007b0c   0x00000028   Dbug   RW  2444     .debug_pubnames     qhsusb_dci_q1100.o
    0x00007b34   0x00000028   Dbug   RW  2447     .debug_pubnames     qhsusb_dci_q1100.o
    0x00007b5c   0x00000030   Dbug   RW  2450     .debug_pubnames     qhsusb_dci_q1100.o
    0x00007b8c   0x00000034   Dbug   RW  2455     .debug_pubnames     qhsusb_dci_q1100.o
    0x00007bc0   0x0000002c   Dbug   RW  2465     .debug_pubnames     qhsusb_dci_q1100.o
    0x00007bec   0x00000024   Dbug   RW  2474     .debug_pubnames     qhsusb_dci_q1100.o
    0x00007c10   0x00000028   Dbug   RW  2479     .debug_pubnames     qhsusb_dci_q1100.o
    0x00007c38   0x0000003c   Dbug   RW  2483     .debug_pubnames     qhsusb_dci_q1100.o
    0x00007c74   0x00000028   Dbug   RW  2487     .debug_pubnames     qhsusb_dci_q1100.o
    0x00007c9c   0x000002f0   Dbug   RW  2490     .debug_pubnames     qhsusb_dci_q1100.o
    0x00007f8c   0x00000024   Dbug   RW  2511     .debug_pubnames     crc.o
    0x00007fb0   0x00000024   Dbug   RW  2523     .debug_pubnames     crc.o
    0x00007fd4   0x00000024   Dbug   RW  2534     .debug_pubnames     crc.o
    0x00007ff8   0x00000024   Dbug   RW  2554     .debug_pubnames     crc.o
    0x0000801c   0x00000058   Dbug   RW  2559     .debug_pubnames     crc.o
    0x00008074   0x00000028   Dbug   RW  2579     .debug_pubnames     ap_msm.o
    0x0000809c   0x00000028   Dbug   RW  2582     .debug_pubnames     ap_msm.o
    0x000080c4   0x00000024   Dbug   RW  2585     .debug_pubnames     ap_msm.o
    0x000080e8   0x00000020   Dbug   RW  2588     .debug_pubnames     ap_msm.o
    0x00008108   0x00000028   Dbug   RW  2599     .debug_pubnames     ap_msm.o
    0x00008130   0x00000028   Dbug   RW  2603     .debug_pubnames     ap_msm.o
    0x00008158   0x00000024   Dbug   RW  2607     .debug_pubnames     ap_msm.o
    0x0000817c   0x00000020   Dbug   RW  2611     .debug_pubnames     ap_msm.o
    0x0000819c   0x00000030   Dbug   RW  2637     .debug_pubnames     ap_flash.o
    0x000081cc   0x0000002c   Dbug   RW  2640     .debug_pubnames     ap_flash.o
    0x000081f8   0x00000028   Dbug   RW  2649     .debug_pubnames     ap_flash.o
    0x00008220   0x00000028   Dbug   RW  2652     .debug_pubnames     ap_flash.o
    0x00008248   0x00000020   Dbug   RW  2655     .debug_pubnames     ap_flash.o
    0x00008268   0x00000028   Dbug   RW  2658     .debug_pubnames     ap_flash.o
    0x00008290   0x0000002c   Dbug   RW  2661     .debug_pubnames     ap_flash.o
    0x000082bc   0x00000030   Dbug   RW  2664     .debug_pubnames     ap_flash.o
    0x000082ec   0x0000002c   Dbug   RW  2668     .debug_pubnames     ap_flash.o
    0x00008318   0x00000028   Dbug   RW  2683     .debug_pubnames     ap_flash.o
    0x00008340   0x00000028   Dbug   RW  2688     .debug_pubnames     ap_flash.o
    0x00008368   0x00000020   Dbug   RW  2693     .debug_pubnames     ap_flash.o
    0x00008388   0x00000028   Dbug   RW  2698     .debug_pubnames     ap_flash.o
    0x000083b0   0x00000084   Dbug   RW  2703     .debug_pubnames     ap_flash.o
    0x00008434   0x0000002c   Dbug   RW  2707     .debug_pubnames     ap_flash.o
    0x00008460   0x00000088   Dbug   RW  2711     .debug_pubnames     ap_flash.o
    0x000084e8   0x00000020   Dbug   RW  2716     .debug_pubnames     ap_id.o


================================================================================

Image component sizes


      Code    RO Data    RW Data    ZI Data      Debug   Object Name

       220       3072          0          0      12448   crc.o
      2328          0         12          0      32844   qhsusb_dcd_ch9.o
       520          0         12          0      16348   flash_ram.o
      1408          0        144         12      29876   flash_nor.o
       540         16          0        480      18628   flash_common.o
       268          0          0          0        244   ap_startup.o
       172          6          0      18948      19528   ap_armprg.o
        92          0          0          0       1156   flash_nor_utils.o
      1496         19        272          4      34352   flash_nor_spansion.o
      2548         39        520       2068      34612   flash_nor_intel.o
        16          0          0          0       1048   flash_os_none.o
      1168          0         20       8236      21968   ap_uart.o
        68          0          0          0       1560   ap_msm.o
      3128        508        124     107164      32040   ap_packet.o
       728          0        448      12436      18248   qhsusb_fd_hdlc.o
       260          0         48          4      23056   qhsusb_al_hostdl.o
       808          0         64        504      36096   flash_msm.o
      2204          0          0       4096      34616   qhsusb_dci.o
        84          0          4         14      16600   qhsusb_dci_q1100.o
      2004         38        528        132      25788   flash_nor_samsung.o
         0        277          4          0      10516   ap_id.o
      1416          8          1       6260      18620   ap_flash.o

    ------------------------------------------------------------------------
     21476       3983       2201     160358     440192   Object Totals

    ------------------------------------------------------------------------

      Code    RO Data    RW Data    ZI Data      Debug   Library Member Name

        92          0          0          0         84   rt_memclr_w.o
        16          0          0          0          0   callvia.o
         8          0          0          0         68   use_semi.o
        28          0          0          0         68   sys_exit.o
        20          0          0          0         80   sys_wrch.o
        32          0          0          0         84   rt_raise.o
       184          0          0          0         60   rt_memcpy.o
       280        299          0          0         84   defsig.o
        16          0          0          0         60   rt_div0.o
       112          0          0          0         84   rt_memcpy_w.o
        88          0          0          0         72   memcmp.o
        68          0          0          0         88   __raise.o
        80          0          0          0         80   strncmp.o
       196          0          0          0         68   rt_udiv.o

    ------------------------------------------------------------------------
      1220        299          0          0        980   Library Totals

    ------------------------------------------------------------------------

      Code    RO Data    RW Data    ZI Data      Debug   Library Name

      1220        299          0          0        980   lib\armlib\c_t__un.l

    ------------------------------------------------------------------------
      1220        299          0          0        980   Library Totals

    ------------------------------------------------------------------------

================================================================================


      Code    RO Data    RW Data    ZI Data      Debug   

     22696       4282       2201     160358     441172   Grand Totals

================================================================================

    Total RO  Size(Code + RO Data)                26978 (  26.35kB)
    Total RW  Size(RW Data + ZI Data)            162559 ( 158.75kB)
    Total ROM Size(Code + RO Data + RW Data)      29179 (  28.50kB)

================================================================================

